((dp0
S'arm_dbg_args'
p1
S'-via:"e:\\Documents\\GitHub\\Mastermind-Remake\\Mastermind\\build_mastermind_vc11\\Mastermind_vc11_arm_debug.via" -qemu'
p2
sS'game-icf'
p3
S''
p4
sS'dist'
p5
NsS'csproj'
p6
g4
sS'module_path_append'
p7
NsS'global_path'
p8
S'e:\\documents\\github\\mastermind-remake'
p9
sS'system_path'
p10
S'e:\\program files (x86)\\marmelade\\7.4\\s3e\\makefile_builder'
p11
sS'android_x86_dbg_args'
p12
S'../../tools/DeployTool/DeployTool.exe --dir "e:\\Documents\\GitHub\\Mastermind-Remake\\Mastermind\\build_mastermind_vc11"'
p13
sS'no-emit'
p14
NsS'arm-float-abi'
p15
g4
sS'arm_rel_rtsm_args'
p16
S'-via:"e:\\Documents\\GitHub\\Mastermind-Remake\\Mastermind\\build_mastermind_vc11\\Mastermind_vc11_arm_release.via" -qemu'
p17
sS'amd64'
p18
NsS'line-width'
p19
I80
sS'gcc_dbg_args'
p20
S'-via:"e:\\Documents\\GitHub\\Mastermind-Remake\\Mastermind\\build_mastermind_vc11\\Mastermind_vc11_gcc_debug.via" -qemu'
p21
sS'android-x86'
p22
NsS'x86_dbg_exe'
p23
S'e:/program files (x86)/marmelade/7.4/s3e\\win32\\s3e_simulator_debug.exe'
p24
sS'disable-runtime-checks'
p25
NsS'release'
p26
NsS'no-make'
p27
NsS'xcode-x86-build-settings'
p28
g4
sS'optimise-size'
p29
NsS'output-name-debug'
p30
g4
sS'arm-fpu'
p31
g4
sS'proj_name'
p32
S'Mastermind_vc11'
p33
sS'rvct-version'
p34
S'none'
p35
sS'compiler'
p36
g4
sS'execute'
p37
NsS'compile-static'
p38
NsS'msvc-project'
p39
I01
sS'buildenv'
p40
g4
sS'quick'
p41
NsS'module_path'
p42
(lp43
S'e:/Documents/GitHub/Mastermind-Remake/modules'
p44
asS'mkf_default'
p45
S's3e-default.mkf'
p46
sS'use-release-std-libs'
p47
NsS'using_perforce'
p48
I00
sS'tizen-x86'
p49
NsS'mips-s3e'
p50
NsS's3e-api-lib-name'
p51
S's3e_api_iwgl'
p52
sS'ios-no-pic'
p53
NsS'shared-arm-lib'
p54
NsS'arm-cpu'
p55
g4
sS'compile-thumb'
p56
NsS'no-ide'
p57
NsS'msvc-version'
p58
S'6.0'
p59
sS'arm'
p60
NsS'builddir'
p61
g4
sS'compile-debug-as-release'
p62
I0
sS'arm-arch'
p63
g4
sS'brief'
p64
NsS'dll'
p65
NsS'buildenv-toolset'
p66
g4
sS'version'
p67
NsS'ccache'
p68
I0
sS'offline'
p69
NsS'ios-version'
p70
g4
sS'hub_data'
p71
g4
sS'fake_vc_call'
p72
NsS'jobs'
p73
I0
sS'linkflags'
p74
NsS'debug'
p75
NsS'xcode-build-order'
p76
g4
sS'gcc_rel_rtsm_args'
p77
S'-via:"e:\\Documents\\GitHub\\Mastermind-Remake\\Mastermind\\build_mastermind_vc11\\Mastermind_vc11_gcc_release.via" -qemu'
p78
sS'done_defaults'
p79
I1
sS'path'
p80
NsS's3e-data-dir'
p81
S'e:/Documents/GitHub/Mastermind-Remake/Mastermind\\data'
p82
sS'enable-exceptions'
p83
NsS'osx-dll'
p84
NsS'extension'
p85
g4
sS'no-vc6'
p86
NsS'non-interactive'
p87
NsS'win32-console'
p88
NsS'dist-format'
p89
g4
sS's3e-force-arch'
p90
NsS'dump_defines'
p91
NsS'use_prebuilt'
p92
NsS'gcc-version'
p93
g4
sS'x86_dbg_args'
p94
S'-via:"e:\\Documents\\GitHub\\Mastermind-Remake\\Mastermind\\build_mastermind_vc11\\Mastermind_vc11_debug.via"'
p95
sS'tizen_x86_dbg_args'
p96
g13
sS'arm-debugger'
p97
g4
sS'use_temp_extension'
p98
NsS'verbose'
p99
I0
sS'log'
p100
NsS'no-strip'
p101
NsS'rebuild'
p102
NsS'win32-simulator-dll'
p103
NsS'strict'
p104
NsS'mips_dbg_args'
p105
g13
sS'enable-global-path'
p106
NsS'cflags'
p107
NsS'dist-dir'
p108
g4
sS'xcode-arm-build-settings'
p109
g4
sS'jflags'
p110
NsS'csprojSDKRefs'
p111
g4
sS'tizen_x86_rel_exe'
p112
S'e:\\program files (x86)\\marmelade\\7.4\\s3e\\makefile_builder\\tool_launcher.exe'
p113
sS'test-assets'
p114
g4
sS'distcc'
p115
NsS'external-compiler'
p116
NsS'no-distcc'
p117
NsS'preinclude'
p118
NsS'using_sdk'
p119
I01
sS'nologo'
p120
NsS'warn-level'
p121
I2
sS'mips_dbg_exe'
p122
g113
sS'mkb_in'
p123
S'e:/Documents/GitHub/Mastermind-Remake/Mastermind/Mastermind.mkb'
p124
sS'tizen_x86_dbg_exe'
p125
g113
sS'arm_dbg_exe'
p126
S'e:/program files (x86)/marmelade/7.4/s3e\\bin\\armdebug.exe'
p127
sS'csprojDLLRef'
p128
NsS'tizen_x86_rel_args'
p129
g13
sS'android_x86_dbg_exe'
p130
g113
sS'test-config'
p131
g4
sS'list-targets'
p132
NsS'arm_rel_exe'
p133
g113
sS'arm_rel_args'
p134
g13
sS'makedeps'
p135
NsS'android_x86_rel_exe'
p136
g113
sS'default-buildenv'
p137
S'vc11'
p138
sS'x86_rel_exe'
p139
g24
sS'preprocess-java'
p140
NsS'mips_rel_args'
p141
g13
sS'defines'
p142
NsS'lib'
p143
NsS'global_argv'
p144
(lp145
S'E:\\Program Files (x86)\\Marmelade\\7.4\\s3e\\makefile_builder\\mkb.py'
p146
aS'e:/Documents/GitHub/Mastermind-Remake/Mastermind/Mastermind.mkb'
p147
aS'--default-buildenv=vc11'
p148
aS'--msvc-project'
p149
asS'make'
p150
NsS'optimise-speed'
p151
NsS'internal'
p152
NsS'enable-stdinc'
p153
NsS'deploy-only'
p154
NsS'x86'
p155
NsS'deploy'
p156
g4
sS'x86_run_exe'
p157
S'e:/program files (x86)/marmelade/7.4/s3e\\win32\\s3e_console.exe'
p158
sS'x86_rel_args'
p159
S'-via:"e:\\Documents\\GitHub\\Mastermind-Remake\\Mastermind\\build_mastermind_vc11\\Mastermind_vc11_release.via"'
p160
sS'gcc_rel_args'
p161
g13
sS'mips'
p162
NsS'xcode-build-settings'
p163
g4
sS'incredibuild'
p164
NsS'strict-compile'
p165
NsS'use-auto-subdirs'
p166
NsS'mips_rel_exe'
p167
g113
sS'android_x86_rel_args'
p168
g13
sS'app-icf'
p169
g4
sS'deployargs'
p170
NsS'iosnativedebug'
p171
NsS'mkf_in'
p172
(lp173
S'e:\\program files (x86)\\marmelade\\7.4\\s3e\\s3e-default.mkf'
p174
aS'e:\\program files (x86)\\marmelade\\7.4\\modules\\iw2d\\iw2d.mkf'
p175
aS'e:\\program files (x86)\\marmelade\\7.4\\modules\\iwgx\\iwgx.mkf'
p176
aS'e:\\program files (x86)\\marmelade\\7.4\\modules\\iwgl\\iwgl.mkf'
p177
aS'e:\\program files (x86)\\marmelade\\7.4\\modules\\iwutil\\iwutil.mkf'
p178
aS'e:\\program files (x86)\\marmelade\\7.4\\modules\\third_party\\libjpeg\\libjpeg.mkf'
p179
aS'e:\\program files (x86)\\marmelade\\7.4\\modules\\third_party\\libpng\\libpng.mkf'
p180
aS'e:\\program files (x86)\\marmelade\\7.4\\modules\\third_party\\zlib\\zlib.mkf'
p181
aS'e:\\program files (x86)\\marmelade\\7.4\\modules\\iwgeom\\iwgeom.mkf'
p182
aS'e:\\program files (x86)\\marmelade\\7.4\\modules\\iwresmanager\\iwresmanager.mkf'
p183
aS'e:\\program files (x86)\\marmelade\\7.4\\extensions\\pvrtextool\\pvrtextool.mkf'
p184
aS'e:\\program files (x86)\\marmelade\\7.4\\modules\\iwgxfont\\iwgxfont.mkf'
p185
aS'e:\\program files (x86)\\marmelade\\7.4\\modules\\third_party\\tiniconv\\tiniconv.mkf'
p186
aS'e:\\program files (x86)\\marmelade\\7.4\\modules\\iwtween\\iwtween.mkf'
p187
aS'e:\\program files (x86)\\marmelade\\7.4\\modules\\iw2dscenegraph\\iw2dscenegraph.mkf'
p188
aS'e:\\program files (x86)\\marmelade\\7.4\\modules\\iw2dscenegraphcore\\iw2dscenegraphcore.mkf'
p189
aS'e:\\documents\\github\\mastermind-remake\\modules\\soundengine\\soundengine.mkf'
p190
asS'strict-mkb'
p191
NsS'executeargs'
p192
NsS'clean'
p193
NsS'no-asm'
p194
NsS'output-name'
p195
g4
sS'no-modules'
p196
NsS'find_define'
p197
g4
s(dp198
S'e:\\program files (x86)\\marmelade\\7.4\\s3e\\makefile_builder\\templates\\win8_ext_csproj.pyc'
p199
F1415334512.0
sS'e:\\program files (x86)\\marmelade\\7.4\\s3e\\makefile_builder\\templates\\wp81_ext_csproj.pyc'
p200
F1415334512.0
sS'e:\\program files (x86)\\marmelade\\7.4\\s3e\\makefile_builder\\templates\\ws81_sln.pyc'
p201
F1415334512.0
sS'e:\\program files (x86)\\marmelade\\7.4\\s3e\\makefile_builder\\docs\\options.txt'
p202
F1415332874.0
sS'e:\\program files (x86)\\marmelade\\7.4\\s3e\\makefile_builder\\templates\\wp8_vcxproj.pyc'
p203
F1415334512.0
sS'e:\\program files (x86)\\marmelade\\7.4\\s3e\\makefile_builder\\plugins'
p204
F1420751235.7133234
sS'e:\\program files (x86)\\marmelade\\7.4\\s3e\\makefile_builder\\plugins\\SConsEmitter.pyc'
p205
F1415334512.0
sS'e:\\program files (x86)\\marmelade\\7.4\\s3e\\makefile_builder\\templates\\ws8_ext_csproj.pyc'
p206
F1415334512.0
sS'e:\\program files (x86)\\marmelade\\7.4\\s3e\\makefile_builder\\templates\\vc10_user.pyc'
p207
F1415334512.0
sS'e:\\program files (x86)\\marmelade\\7.4\\s3e\\makefile_builder\\plugins\\s3e_qmake.pyc'
p208
F1420751235.3792553
sS'e:\\program files (x86)\\marmelade\\7.4\\s3e\\makefile_builder\\plugins\\s3e_wp8.pyc'
p209
F1415334512.0
sS'e:\\program files (x86)\\marmelade\\7.4\\s3e\\makefile_builder\\plugins\\S3EEmitter.pyc'
p210
F1415334512.0
sS'e:\\program files (x86)\\marmelade\\7.4\\s3e\\makefile_builder\\templates\\xcode4.xcscheme'
p211
F1415332874.0
sS'e:\\program files (x86)\\marmelade\\7.4\\s3e\\makefile_builder\\templates\\ws8_csproj_user.pyc'
p212
F1415334512.0
sS'e:\\program files (x86)\\marmelade\\7.4\\s3e\\makefile_builder\\mkb.py'
p213
F1415332874.0
sS'e:\\program files (x86)\\marmelade\\7.4\\s3e\\makefile_builder\\plugins\\s3e_qmake.py'
p214
F1415332874.0
sS'e:\\program files (x86)\\marmelade\\7.4\\s3e\\makefile_builder\\plugins\\s3e_win8.pyc'
p215
F1415334512.0
sS'e:\\program files (x86)\\marmelade\\7.4\\s3e\\makefile_builder\\plugins\\s3e_xcode.py'
p216
F1415332874.0
sS'e:\\program files (x86)\\marmelade\\7.4\\s3e\\makefile_builder\\plugins\\s3e_wp81.pyc'
p217
F1415334512.0
sS'e:\\program files (x86)\\marmelade\\7.4\\s3e\\makefile_builder\\templates\\rvct_linker_script'
p218
F1415332874.0
sS'e:\\program files (x86)\\marmelade\\7.4\\s3e\\makefile_builder\\plugins\\linux_scons.pyc'
p219
F1415334512.0
sS'e:\\program files (x86)\\marmelade\\7.4\\s3e\\makefile_builder\\templates\\template.opt'
p220
F1415332874.0
sS'e:\\program files (x86)\\marmelade\\7.4\\s3e\\makefile_builder\\plugins\\wp81_wp81.pyc'
p221
F1415334512.0
sS'e:\\program files (x86)\\marmelade\\7.4\\s3e\\makefile_builder\\templates\\vc6_opt.pyc'
p222
F1415334512.0
sS'e:\\program files (x86)\\marmelade\\7.4\\s3e\\makefile_builder\\templates\\gdb_start.txt'
p223
F1415332874.0
sS'e:\\program files (x86)\\marmelade\\7.4\\s3e\\makefile_builder\\plugins\\XcodeEmitter.pyc'
p224
F1420751235.2012188
sS'e:\\program files (x86)\\marmelade\\7.4\\s3e\\makefile_builder\\plugins\\iphone.pyc'
p225
F1415334512.0
sS'e:\\program files (x86)\\marmelade\\7.4\\s3e\\makefile_builder\\templates\\linker_script'
p226
F1415332874.0
sS'e:\\program files (x86)\\marmelade\\7.4\\s3e\\makefile_builder\\templates\\win8_csproj.pyc'
p227
F1415334512.0
sS'e:\\program files (x86)\\marmelade\\7.4\\s3e\\makefile_builder\\templates\\Info.plist'
p228
F1415332874.0
sS'e:\\program files (x86)\\marmelade\\7.4\\s3e\\makefile_builder\\plugins\\osx_xcode.pyc'
p229
F1415334512.0
sS'e:\\program files (x86)\\marmelade\\7.4\\s3e\\makefile_builder\\plugins\\vc6_utils.pyc'
p230
F1415334512.0
sS'e:\\program files (x86)\\marmelade\\7.4\\s3e\\makefile_builder\\plugins\\s3e_vc6.pyc'
p231
F1415334512.0
sS'e:\\program files (x86)\\marmelade\\7.4\\s3e\\makefile_builder\\plugins\\win8_utils.pyc'
p232
F1415334512.0
sS'e:\\program files (x86)\\marmelade\\7.4\\s3e\\makefile_builder\\templates\\win8_csproj_user.pyc'
p233
F1415334512.0
sS'e:\\program files (x86)\\marmelade\\7.4\\s3e\\makefile_builder\\templates\\ws8_ext_sln.pyc'
p234
F1415334512.0
sS'e:\\program files (x86)\\marmelade\\7.4\\s3e\\makefile_builder\\plugins\\Emitter.pyc'
p235
F1415334512.0
sS'e:\\program files (x86)\\marmelade\\7.4\\s3e\\makefile_builder\\templates\\ws8_csproj.pyc'
p236
F1415334512.0
sS'e:\\program files (x86)\\marmelade\\7.4\\s3e\\makefile_builder\\plugins\\java.pyc'
p237
F1415334512.0
sS'e:\\program files (x86)\\marmelade\\7.4\\s3e\\makefile_builder\\plugins\\win32_vc6.pyc'
p238
F1415334512.0
sS'e:\\program files (x86)\\marmelade\\7.4\\s3e\\makefile_builder\\templates\\qmake_user.py'
p239
F1415332874.0
sS'e:\\program files (x86)\\marmelade\\7.4\\s3e\\makefile_builder\\templates\\wp8_csproj_user.pyc'
p240
F1415334512.0
sS'e:\\program files (x86)\\marmelade\\7.4\\s3e\\makefile_builder\\templates\\ws81_csproj.pyc'
p241
F1415334512.0
sS'e:\\program files (x86)\\marmelade\\7.4\\s3e\\makefile_builder\\plugins\\s3e_xcode.pyc'
p242
F1420751235.7133234
sS'e:\\program files (x86)\\marmelade\\7.4\\s3e\\makefile_builder\\mkb_util.pyc'
p243
F1415334512.0
sS'e:\\program files (x86)\\marmelade\\7.4\\s3e\\makefile_builder\\templates\\template.suo'
p244
F1415332874.0
sS'e:\\program files (x86)\\marmelade\\7.4\\s3e\\makefile_builder\\templates\\win8_sln.pyc'
p245
F1415334512.0
sS'e:\\program files (x86)\\marmelade\\7.4\\s3e\\makefile_builder\\templates\\wp8_ext_csproj.pyc'
p246
F1415334512.0
sS'e:\\program files (x86)\\marmelade\\7.4\\s3e\\makefile_builder\\plugins\\s3e_ws8.pyc'
p247
F1415334512.0
sS'e:\\program files (x86)\\marmelade\\7.4\\s3e\\makefile_builder\\templates\\scons.pyc'
p248
F1415334512.0
sS'e:\\program files (x86)\\marmelade\\7.4\\s3e\\makefile_builder\\templates\\wp8_csproj.pyc'
p249
F1415334512.0
sS'e:\\program files (x86)\\marmelade\\7.4\\s3e\\makefile_builder\\plugins\\xcode4_schememanagement.pyc'
p250
F1420751235.231225
sS'e:\\program files (x86)\\marmelade\\7.4\\s3e\\makefile_builder\\plugins\\Win8Emitter.pyc'
p251
F1415334512.0
sS'e:\\program files (x86)\\marmelade\\7.4\\s3e\\makefile_builder\\templates\\ws81_ext_csproj.pyc'
p252
F1415334512.0
sS'e:\\program files (x86)\\marmelade\\7.4\\s3e\\makefile_builder\\templates\\win32_vcproj.pyc'
p253
F1415334512.0
sS'e:\\program files (x86)\\marmelade\\7.4\\s3e\\makefile_builder\\templates\\ws8_vcxproj.pyc'
p254
F1415334512.0
sS'e:\\program files (x86)\\marmelade\\7.4\\s3e\\makefile_builder\\templates\\win32_dsw.pyc'
p255
F1415334512.0
sS'e:\\program files (x86)\\marmelade\\7.4\\s3e\\makefile_builder\\tool_launcher.exe'
p256
F1415333332.0
sS'e:\\program files (x86)\\marmelade\\7.4\\s3e\\makefile_builder\\templates\\mips_linker_script'
p257
F1415332874.0
sS'e:\\program files (x86)\\marmelade\\7.4\\s3e\\makefile_builder\\plugins\\vc7_utils.pyc'
p258
F1415334512.0
sS'e:\\program files (x86)\\marmelade\\7.4\\s3e\\makefile_builder\\templates\\win8_vcxproj.pyc'
p259
F1415334512.0
sS'e:\\program files (x86)\\marmelade\\7.4\\s3e\\makefile_builder\\docs'
p260
F1416501615.6836011
sS'e:\\program files (x86)\\marmelade\\7.4\\s3e\\makefile_builder\\templates\\wp81_ext_sln.pyc'
p261
F1415334512.0
sS'e:\\program files (x86)\\marmelade\\7.4\\s3e\\makefile_builder\\templates\\ws8_sln.pyc'
p262
F1415334512.0
sS'e:\\program files (x86)\\marmelade\\7.4\\s3e\\makefile_builder\\docs\\deprecated.defines.txt'
p263
F1415332874.0
sS'e:\\program files (x86)\\marmelade\\7.4\\s3e\\makefile_builder\\templates\\wp8_sln.pyc'
p264
F1415334512.0
sS'e:\\program files (x86)\\marmelade\\7.4\\s3e\\makefile_builder\\templates\\xcode4_DeployTool.xcscheme'
p265
F1415332874.0
sS'e:\\program files (x86)\\marmelade\\7.4\\s3e\\makefile_builder\\deployment.pyc'
p266
F1415334512.0
sS'e:\\program files (x86)\\marmelade\\7.4\\s3e\\makefile_builder\\templates\\win32_vcxproj_filters.pyc'
p267
F1415334512.0
sS'e:\\program files (x86)\\marmelade\\7.4\\s3e\\makefile_builder\\plugins\\s3e_scons.pyc'
p268
F1415334512.0
sS'e:\\program files (x86)\\marmelade\\7.4\\s3e\\makefile_builder\\plugins\\wp8_wp8.pyc'
p269
F1415334512.0
sS'e:\\program files (x86)\\marmelade\\7.4\\s3e\\makefile_builder\\templates\\make.py'
p270
F1415332874.0
sS'e:\\program files (x86)\\marmelade\\7.4\\s3e\\makefile_builder\\templates\\win32_dsp.pyc'
p271
F1415334512.0
sS'e:\\program files (x86)\\marmelade\\7.4\\s3e\\makefile_builder\\templates\\vc7_suo.pyc'
p272
F1415334512.0
sS'e:\\program files (x86)\\marmelade\\7.4\\s3e\\makefile_builder\\mkb_main.pyc'
p273
F1415334512.0
sS'e:\\program files (x86)\\marmelade\\7.4\\s3e\\makefile_builder\\templates\\ws81_csproj_user.pyc'
p274
F1415334512.0
sS'e:\\program files (x86)\\marmelade\\7.4\\s3e\\makefile_builder\\mkb_parser.pyc'
p275
F1415334512.0
sS'e:\\program files (x86)\\marmelade\\7.4\\s3e\\makefile_builder\\templates'
p276
F1416501615.6755996
sS'e:\\program files (x86)\\marmelade\\7.4\\s3e\\makefile_builder\\templates\\wp81_vcxproj.pyc'
p277
F1415334512.0
sS'e:\\program files (x86)\\marmelade\\7.4\\s3e\\makefile_builder\\docs\\deprecated.options.txt'
p278
F1415332874.0
sS'e:\\program files (x86)\\marmelade\\7.4\\s3e\\makefile_builder\\templates\\xcode_pbxuser.py'
p279
F1415332874.0
sS'e:\\program files (x86)\\marmelade\\7.4\\s3e\\makefile_builder\\plugins\\s3e_web.pyc'
p280
F1415334512.0
sS'e:\\program files (x86)\\marmelade\\7.4\\s3e\\makefile_builder\\mkb_launcher.exe'
p281
F1415333332.0
sS'e:\\program files (x86)\\marmelade\\7.4\\s3e\\makefile_builder\\docs\\parse_options.pyc'
p282
F1415334514.0
sS'e:\\program files (x86)\\marmelade\\7.4\\s3e\\makefile_builder\\plugins\\null.pyc'
p283
F1415334512.0
sS'e:\\program files (x86)\\marmelade\\7.4\\s3e\\makefile_builder\\plugins\\ws81_ws81.pyc'
p284
F1415334512.0
sS'e:\\program files (x86)\\marmelade\\7.4\\s3e\\makefile_builder\\docs\\deployment_options.txt'
p285
F1415332874.0
sS'e:\\program files (x86)\\marmelade\\7.4\\s3e\\makefile_builder\\plugins\\deploy.pyc'
p286
F1415334512.0
sS'e:\\program files (x86)\\marmelade\\7.4\\s3e\\makefile_builder\\templates\\qmake.py'
p287
F1415332874.0
sS'e:\\program files (x86)\\marmelade\\7.4\\s3e\\makefile_builder\\templates\\wp81_sln.pyc'
p288
F1415334512.0
sS'e:\\program files (x86)\\marmelade\\7.4\\s3e\\makefile_builder\\templates\\win32_sln.pyc'
p289
F1415334512.0
sS'e:\\program files (x86)\\marmelade\\7.4\\s3e\\makefile_builder\\templates\\wp81_csproj_user.pyc'
p290
F1415334512.0
sS'e:\\program files (x86)\\marmelade\\7.4\\s3e\\makefile_builder\\templates\\ws81_ext_sln.pyc'
p291
F1415334512.0
sS'e:\\program files (x86)\\marmelade\\7.4\\s3e\\makefile_builder\\templates\\vc8_user.pyc'
p292
F1415334512.0
sS'e:\\program files (x86)\\marmelade\\7.4\\s3e\\makefile_builder\\plugins\\XcodeEmitter.py'
p293
F1415332874.0
sS'e:\\program files (x86)\\marmelade\\7.4\\s3e\\makefile_builder\\plugins\\xcode4_schememanagement.py'
p294
F1415332874.0
sS'e:\\program files (x86)\\marmelade\\7.4\\s3e\\makefile_builder\\docs\\mkb.defines.txt'
p295
F1415332874.0
sS'e:\\program files (x86)\\marmelade\\7.4\\s3e\\makefile_builder\\mkb_option.pyc'
p296
F1415334512.0
sS'e:\\program files (x86)\\marmelade\\7.4\\s3e\\makefile_builder\\plugins\\s3e_ws81.pyc'
p297
F1415334512.0
sS'e:\\program files (x86)\\marmelade\\7.4\\s3e\\makefile_builder\\plugins\\MakeEmitter.pyc'
p298
F1415334512.0
sS'e:\\program files (x86)\\marmelade\\7.4\\s3e\\makefile_builder\\plugins\\s3e_make.pyc'
p299
F1415334512.0
sS'e:\\program files (x86)\\marmelade\\7.4\\s3e\\makefile_builder\\templates\\win32_vcxproj.pyc'
p300
F1415334512.0
sS'e:\\program files (x86)\\marmelade\\7.4\\s3e\\makefile_builder\\plugins\\osx_scons.pyc'
p301
F1415334512.0
sS'e:\\program files (x86)\\marmelade\\7.4\\s3e\\makefile_builder\\templates\\wp81_csproj.pyc'
p302
F1415334512.0
sS'e:\\program files (x86)\\marmelade\\7.4\\s3e\\makefile_builder\\templates\\MainWindow.xib'
p303
F1415332874.0
sS'e:\\program files (x86)\\marmelade\\7.4\\s3e\\makefile_builder\\templates\\xcode4_arm.xcscheme'
p304
F1415332874.0
sS'e:\\program files (x86)\\marmelade\\7.4\\s3e\\makefile_builder\\mkb_globals.pyc'
p305
F1415334512.0
sS'e:\\program files (x86)\\marmelade\\7.4\\s3e\\makefile_builder\\mkb_upstream.pyc'
p306
F1415334512.0
sS'e:\\program files (x86)\\marmelade\\7.4\\s3e\\makefile_builder\\plugins\\VisualStudioEmitter.pyc'
p307
F1415334512.0
sS'e:\\program files (x86)\\marmelade\\7.4\\s3e\\makefile_builder\\templates\\xcode.py'
p308
F1415332874.0
sS'e:\\program files (x86)\\marmelade\\7.4\\s3e\\makefile_builder\\plugins\\ws8_ws8.pyc'
p309
F1415334512.0
sS'e:\\program files (x86)\\marmelade\\7.4\\s3e\\makefile_builder\\templates\\ws81_vcxproj.pyc'
p310
F1415334512.0
sccopy_reg
_reconstructor
p311
(cmkb_main
MkbFile
p312
c__builtin__
object
p313
Ntp314
Rp315
(dp316
g5
(lp317
sS'target_name'
p318
S'Mastermind'
p319
sS'current_file'
p320
g124
sS'package_path'
p321
(lp322
sS'post_build'
p323
(lp324
(lp325
S'e:/program files (x86)/marmelade/7.4/s3e/tools'
p326
aS'"E:\\Program Files (x86)\\Marmelade\\7.4\\s3e\\python\\python.exe" .\\process_map.py "$(TargetPath)"'
p327
aa(S'e:\\program files (x86)\\marmelade\\7.4\\s3e\\bin'
p328
S'"s3e_plink" -l "$(TargetPath)" '
p329
g155
tp330
asS'librarys'
p331
(lp332
g311
(cmkb_main
Library
p333
g313
Ntp334
Rp335
(dp336
S'name'
p337
S'vc6_compat.lib'
p338
sS'expand_name'
p339
I00
sS'include_spec_rvct_objs'
p340
(lp341
sS'include_all_objs'
p342
I00
sS'share_arm'
p343
I00
sS'arch'
p344
S'x86'
p345
sS'nodebug'
p346
I00
sg36
Nsbag311
(g333
g313
Ntp347
Rp348
(dp349
g337
S'iw2d'
p350
sg339
I01
sg340
(lp351
sg342
Nsg343
Nsg344
Nsg346
I00
sg36
Nsbag311
(g333
g313
Ntp352
Rp353
(dp354
g337
S'ATI_Compress_MT_VC7.lib'
p355
sg339
I00
sg340
g351
sg342
Nsg343
Nsg344
S'x86'
p356
sg346
I00
sg36
Nsbag311
(g333
g313
Ntp357
Rp358
(dp359
g337
S'iwgx'
p360
sg339
I01
sg340
g351
sg342
Nsg343
Nsg344
Nsg346
I00
sg36
Nsbag311
(g333
g313
Ntp361
Rp362
(dp363
g337
S'iwgl'
p364
sg339
I01
sg340
g351
sg342
Nsg343
Nsg344
Nsg346
I00
sg36
Nsbag311
(g333
g313
Ntp365
Rp366
(dp367
g337
S'iwutil'
p368
sg339
I01
sg340
g351
sg342
Nsg343
Nsg344
Nsg346
I00
sg36
Nsbag311
(g333
g313
Ntp369
Rp370
(dp371
g337
S'jpeg'
p372
sg339
I01
sg340
g351
sg342
Nsg343
Nsg344
Nsg346
I00
sg36
Nsbag311
(g333
g313
Ntp373
Rp374
(dp375
g337
S'z'
p376
sg339
I01
sg340
g351
sg342
Nsg343
Nsg344
Nsg346
I00
sg36
Nsbag311
(g333
g313
Ntp377
Rp378
(dp379
g337
S'png'
p380
sg339
I01
sg340
g351
sg342
Nsg343
Nsg344
Nsg346
I00
sg36
Nsbag311
(g333
g313
Ntp381
Rp382
(dp383
g337
S'iwgeom'
p384
sg339
I01
sg340
g351
sg342
Nsg343
Nsg344
Nsg346
I00
sg36
Nsbag311
(g333
g313
Ntp385
Rp386
(dp387
g337
S'iwresmanager'
p388
sg339
I01
sg340
g351
sg342
Nsg343
Nsg344
Nsg346
I00
sg36
Nsbag311
(g333
g313
Ntp389
Rp390
(dp391
g337
S'iwgxfont'
p392
sg339
I01
sg340
g351
sg342
Nsg343
Nsg344
Nsg346
I00
sg36
Nsbag311
(g333
g313
Ntp393
Rp394
(dp395
g337
S'tiniconv'
p396
sg339
I01
sg340
g351
sg342
Nsg343
Nsg344
Nsg346
I00
sg36
Nsbag311
(g333
g313
Ntp397
Rp398
(dp399
g337
S's3e_cpp'
p400
sg339
I01
sg340
g341
sg342
I00
sg343
I00
sg344
Nsg346
I00
sg36
Nsbag311
(g333
g313
Ntp401
Rp402
(dp403
g337
S's3e'
p404
sg339
I01
sg340
(lp405
S'iwcrt.o'
p406
asg342
I00
sg343
I00
sg344
Nsg346
I00
sg36
Nsbag311
(g333
g313
Ntp407
Rp408
(dp409
g337
g52
sg339
I01
sg340
g341
sg342
I00
sg343
I00
sg344
S'x86'
p410
sg346
I01
sg36
Nsbag311
(g333
g313
Ntp411
Rp412
(dp413
g337
g52
sg339
I01
sg340
g341
sg342
I00
sg343
I00
sg344
S'!x86'
p414
sg346
I01
sg36
Nsbag311
(g333
g313
Ntp415
Rp416
(dp417
g337
S'stdc++'
p418
sg339
I00
sg340
g341
sg342
I00
sg343
I00
sg344
S'mips'
p419
sg346
I00
sg36
Nsbag311
(g333
g313
Ntp420
Rp421
(dp422
g337
S'c'
p423
sg339
I00
sg340
g341
sg342
I00
sg343
I00
sg344
S'mips'
p424
sg346
I00
sg36
Nsbag311
(g333
g313
Ntp425
Rp426
(dp427
g337
S'm'
p428
sg339
I00
sg340
g341
sg342
I00
sg343
I00
sg344
S'mips'
p429
sg346
I00
sg36
Nsbag311
(g333
g313
Ntp430
Rp431
(dp432
g337
S'gcc'
p433
sg339
I00
sg340
g341
sg342
I00
sg343
I00
sg344
S'mips'
p434
sg346
I00
sg36
Nsbag311
(g333
g313
Ntp435
Rp436
(dp437
g337
S'stdc++'
p438
sg339
I00
sg340
g341
sg342
I00
sg343
I00
sg344
S'gcc_x86_android'
p439
sg346
I00
sg36
Nsbag311
(g333
g313
Ntp440
Rp441
(dp442
g337
g423
sg339
I00
sg340
g341
sg342
I00
sg343
I00
sg344
S'gcc_x86_android'
p443
sg346
I00
sg36
Nsbag311
(g333
g313
Ntp444
Rp445
(dp446
g337
g428
sg339
I00
sg340
g341
sg342
I00
sg343
I00
sg344
S'gcc_x86_android'
p447
sg346
I00
sg36
Nsbag311
(g333
g313
Ntp448
Rp449
(dp450
g337
g433
sg339
I00
sg340
g341
sg342
I00
sg343
I00
sg344
S'gcc_x86_android'
p451
sg346
I00
sg36
NsbasS'library_paths'
p452
(lp453
g311
(cmkb_main
LibraryPath
p454
g313
Ntp455
Rp456
(dp457
S'expand_path'
p458
I01
sg337
S'e:/program files (x86)/marmelade/7.4/modules/iw2d'
p459
sbag311
(g454
g313
Ntp460
Rp461
(dp462
g458
I00
sg337
S'e:/program files (x86)/marmelade/7.4/modules/iwgx/atitools'
p463
sbag311
(g454
g313
Ntp464
Rp465
(dp466
g458
I01
sg337
S'e:/program files (x86)/marmelade/7.4/modules/iwgx'
p467
sbag311
(g454
g313
Ntp468
Rp469
(dp470
g458
I01
sg337
S'e:/program files (x86)/marmelade/7.4/modules/iwgl'
p471
sbag311
(g454
g313
Ntp472
Rp473
(dp474
g458
I01
sg337
S'e:/program files (x86)/marmelade/7.4/modules/iwutil'
p475
sbag311
(g454
g313
Ntp476
Rp477
(dp478
g458
I01
sg337
S'e:/program files (x86)/marmelade/7.4/modules/third_party/libjpeg'
p479
sbag311
(g454
g313
Ntp480
Rp481
(dp482
g458
I01
sg337
S'e:/program files (x86)/marmelade/7.4/modules/third_party/zlib'
p483
sbag311
(g454
g313
Ntp484
Rp485
(dp486
g458
I01
sg337
S'e:/program files (x86)/marmelade/7.4/modules/third_party/libpng'
p487
sbag311
(g454
g313
Ntp488
Rp489
(dp490
g458
I01
sg337
S'e:/program files (x86)/marmelade/7.4/modules/iwgeom'
p491
sbag311
(g454
g313
Ntp492
Rp493
(dp494
g458
I01
sg337
S'e:/program files (x86)/marmelade/7.4/modules/iwresmanager'
p495
sbag311
(g454
g313
Ntp496
Rp497
(dp498
g458
I01
sg337
S'e:/program files (x86)/marmelade/7.4/modules/iwgxfont'
p499
sbag311
(g454
g313
Ntp500
Rp501
(dp502
g458
I01
sg337
S'e:/program files (x86)/marmelade/7.4/modules/third_party/tiniconv'
p503
sbag311
(g454
g313
Ntp504
Rp505
(dp506
g458
I01
sg337
S'e:/program files (x86)/marmelade/7.4/s3e'
p507
sbasS'macros'
p508
(dp509
S'IW_USE_CALLSTACK'
p510
NsS'IW_MKF_IWGEOM'
p511
NsS'I3D_PLATFORM_S3E'
p512
NsS'IW_TRACE_CHANNEL_PVRTEXTOOL_VERBOSE'
p513
S'2'
p514
sS'IW_MKF_LIBJPEG'
p515
NsS'I3D_OS_S3E'
p516
NsS'IW_MKF_PVRTEXTOOL'
p517
NsS'IW_MKF_TINICONV'
p518
NsS'IW_APP_VERSION'
p519
S'"1.0"'
p520
sS'__S3E__'
p521
NsS'IW_MKF_IWRESMANAGER'
p522
NsS'IW_MKF_IWUTIL'
p523
NsS'IW_PLATFORM_S3E'
p524
NsS'IW_ASSERTION_CHANNEL_2D'
p525
S'1'
p526
sS'IW_APP_NAME'
p527
S'"Mastermind"'
p528
sS'IW_MKF_S3E_DEFAULT'
p529
NsS'IW_MKF_IWGXFONT'
p530
NsS'IW_MKF_IWTWEEN'
p531
NsS'IW_MKF_ZLIB'
p532
NsS'IW_MKF_IWGX'
p533
NsS'IW_MKF_IW2DSCENEGRAPH'
p534
NsS'IW_MKF_SOUNDENGINE'
p535
NsS'IW_USE_ASSERTIONS'
p536
NsS'_CRT_SECURE_NO_DEPRECATE'
p537
NsS'IW_MKF_IWGL'
p538
NsS'IW_MKF_LIBPNG'
p539
NsS'IW_TRACE_CHANNEL_IW_2DSCENEGRAPH'
p540
g526
sS'IW_DEBUG'
p541
NsS'IW_USE_TRACING'
p542
NsS'IW_ASSERTION_CHANNEL_IW_2DSCENEGRAPH'
p543
g526
sS'IW_TRACE_CHANNEL_PVRTEXTOOL'
p544
g526
sS'IW_SDK'
p545
NsS'S3E_INCLUDE_LEGACY'
p546
NsS'IW_MKF_IW2DSCENEGRAPHCORE'
p547
NsS'IW_MKF_IW2D'
p548
NsS'IW_ASSERTION_CHANNEL_PVRTEXTOOL'
p549
g526
ssS'done_warnings'
p550
(dp551
sS'subprojects'
p552
(dp553
g184
S'PVRTexTool'
p554
sg177
S'iwgl'
p555
sg190
S'SoundEngine'
p556
sg187
S'iwtween'
p557
sg174
S's3e-default.mkf'
p558
sg178
S'iwutil'
p559
sg175
S'iw2d'
p560
sg188
S'iw2dscenegraph'
p561
sg180
S'libpng'
p562
sg182
S'iwgeom'
p563
sg186
S'tiniconv'
p564
sg183
S'iwresmanager'
p565
sg181
S'zlib'
p566
sg189
S'../iw2dscenegraphcore'
p567
sg176
S'iwgx'
p568
sg185
S'iwgxfont'
p569
sg179
S'libjpeg'
p570
ssS'deployments'
p571
(dp572
S'Default'
p573
g311
(cdeployment
Deployment
p574
g313
Ntp575
Rp576
(dp577
S'got_version'
p578
I0
sS'assets'
p579
g573
sS'mkb'
p580
g315
sS'target'
p581
Nsg344
(lp582
sS'options'
p583
(dp584
S'iphone-link-lib'
p585
(lp586
sS'game-icf'
p587
NsS'android-tm'
p588
NsS'winmobile-icon32'
p589
NsS'ws8-logo-image150x150'
p590
NsS'wp81-logo-image150x150'
p591
NsS'ws81-product-version'
p592
NsS'osx-ext-dll'
p593
(lp594
S'e:/program files (x86)/marmelade/7.4/extensions/pvrtextool/lib/osx/libPVRTexTool.dylib'
p595
asS'iphone-provisioning-profile'
p596
NsS'win32-icon'
p597
NsS'ws8-splash-screen-image620x300'
p598
NsS'wp81-extra-pri'
p599
(lp600
sS'ws8-ext-capabilities'
p601
(lp602
sS'android-icon-hdpi'
p603
NsS'iphone-ipad-only'
p604
NsS'iphone-splash-full-orient'
p605
NsS'wp8-tile-fliptemplate-supports-large'
p606
NsS'iphone-show-status-bar'
p607
NsS'roku-requires-mkv'
p608
NsS'long-caption'
p609
NsS'android-pkgname'
p610
NsS'wp81-publisher-display-name'
p611
NsS'blackberry-permissions-read-device-identifying-information'
p612
NsS'ws81-certificate-end-date'
p613
NsS'psp-dlgcontentid'
p614
NsS'iphone-minimum-ios-version'
p615
NsS'target-folder'
p616
NsS'tizen-dist1-CA-path'
p617
NsS'symbian-icon2-format'
p618
NsS'tizen-author-key'
p619
NsS'firefoxos-icon-128X128'
p620
NsS'iphone-region'
p621
NsS'uiq3-icon3-mask'
p622
NsS'brew-encoding'
p623
NsS'android-x86'
p624
NsS'nds-initialcode'
p625
NsS'iphone-persistent-wifi'
p626
NsS'psp-snd0'
p627
NsS'roku-icon-focus-hd'
p628
NsS'osx-appid'
p629
NsS'winmobile-install-folder'
p630
NsS'android-external-res'
p631
(lp632
sS'ws8-product-version'
p633
NsS'brew-priviledges'
p634
NsS'iphone-icon-ipad-search'
p635
NsS'iphone-icon-ipad'
p636
NsS'iphone-skip-icon-generation'
p637
NsS'roku-hidden'
p638
NsS'psp-titlename'
p639
NsS'wp81-product-version'
p640
NsS'symbian-icon1-mask'
p641
NsS'psp-parentallevel'
p642
NsS'iphone-launch-storyboard'
p643
NsS'splashscreen-use-all'
p644
NsS'wp8-author'
p645
NsS'symbian-disable-ecompxl'
p646
NsS'splashscreen-auto-onblack'
p647
NsS'iphone-icon-dir'
p648
NsS'iphone-icon-extra'
p649
NsS'win32-ext-dll'
p650
(lp651
S'e:/program files (x86)/marmelade/7.4/extensions/pvrtextool/lib/win32/PVRTexTool.dll'
p652
asS'iphone-development-key'
p653
NsS'winmobile-icon48'
p654
NsS'android-unsigned'
p655
NsS'osx-appstore-category'
p656
NsS'version-revision'
p657
NsS'roku-icon-focus-sd'
p658
NsS'android-keystore'
p659
NsS'winmobile-png90'
p660
NsS'iphone-icon-ipad-high-res'
p661
NsS'iphone-disable-ipad'
p662
NsS'ws81-splash-screen-background'
p663
NsS'wp8-ext-capabilities'
p664
(lp665
sS'brew-icon-large'
p666
NsS'symbian-icon1-mask-black'
p667
NsS'iphone-nosign'
p668
NsS'iphone-bundle-localisations'
p669
NsS'winmobile-png60'
p670
NsS'blackberry-permissions-access-shared'
p671
NsS'blackberry-author'
p672
NsS'android-icon-xxxhdpi'
p673
NsS'olddeploytoolstyle'
p674
NsS'android_icon_gallery'
p675
NsS'wp81-splash-screen-background'
p676
NsS'winmobile-cab-compress'
p677
NsS'iphone-info-plist'
p678
NsS'ws81-ext-managed-dll'
p679
(lp680
sS'ws8-distribution-pfx-password'
p681
NsS'symbian-key'
p682
NsS'app-icf'
p683
NsS'blackberry-storepass'
p684
NsS'wp8-tile-fliptemplate-back-title'
p685
NsS'brew-compress-loader'
p686
NsS'win32-pref-windowposy'
p687
NsS'win32-pref-windowposx'
p688
NsS'roku-requires-audiometadata'
p689
NsS'wp8-exclude-low-mem'
p690
NsS'wp8-tile-fliptemplate-title'
p691
NsS'iphone-icon-ipad-search-high-res'
p692
NsS'iphone-link-libdir'
p693
(lp694
sS'wp81-ext-capabilities'
p695
(lp696
sS'blackberry-permissions-read-geolocation'
p697
NsS'ws81-ext-device-capabilities'
p698
(lp699
sS'tizen-signed'
p700
NsS'android-extra-application-manifest'
p701
(lp702
sS'ws8-ext-native-dll'
p703
(lp704
sS'symbian-icon2-mask'
p705
NsS'iphone-launch-extra'
p706
NsS'webos-memory'
p707
NsS'android-keypass'
p708
NsS'name'
p709
NsS'uiq3-icon2-format'
p710
NsS'roku-splash-screen-sd'
p711
NsS'auto-derbh'
p712
NsS'roku-icon-side-sd'
p713
NsS'android-external-assets'
p714
(lp715
sS'nds-publicsavedatasize'
p716
NsS'splashscreen'
p717
NsS'brew-mif'
p718
NsS'iphone-icon-settings-high-res'
p719
NsS'android-manifest'
p720
NsS'ws81-splash-screen-image620x300'
p721
NsS'wp81-product-name'
p722
NsS's3e-compression'
p723
NsS'tizen-author-password'
p724
NsS'wp8-tile-fliptemplate-back-content'
p725
NsS'blackberry-extra-descriptor'
p726
(lp727
sS'symbian-icon1'
p728
NsS'symbian-icon2'
p729
NsS'android-extra-styles-file'
p730
NsS'wp81-publisher-id'
p731
NsS'nds-bannertitle-jp'
p732
NsS'wp81-logo-image44x44'
p733
NsS'osx-sign-for-store'
p734
NsS'symbian7-uid'
p735
NsS'wp8-tile-fliptemplate-large-back-content'
p736
NsS'wp81-phone-publisher-id'
p737
NsS'nds-bannertitle-cn'
p738
NsS'iphone-distribution-key'
p739
NsS'android-icon-gallery'
p740
NsS'blackberry-keystore'
p741
NsS'ws8-extra-res'
p742
(lp743
sS'caption'
p744
NsS'android-extra-manifest'
p745
(lp746
sS'wp81-ext-sdk-ref'
p747
(lp748
sS'android-icon-xxhdpi'
p749
NsS'version-minor'
p750
NsS'iphone-skip-launch-generation'
p751
NsS'iphone-link-libdirs'
p752
(lp753
sS'iphone-icon-large'
p754
NsS'symbian-keypwd'
p755
NsS'symbian8-uid'
p756
NsS'symbian-cert-key'
p757
NsS'winmobile-ampd-part-number'
p758
NsS'arch'
p759
NsS'nds-romheadertemplate'
p760
NsS'webos-icon'
p761
NsS'wp81-ext-device-capabilities'
p762
(lp763
sS'psp-dlgprotectdocument'
p764
NsS'ws8-splash-screen-background'
p765
NsS'android-icon-mdpi'
p766
NsS'nds-icon'
p767
NsS'ws8-custom-manifest-fill'
p768
NsS'iphone-development-cert'
p769
NsS'blackberry-phone-icon'
p770
NsS'iphone-enable-4inch-retina'
p771
NsS'ws8-custom-manifest'
p772
NsS'version-major'
p773
NsS'wp8-genre-isgame'
p774
NsS'uiq3-uid'
p775
NsS'iphone-splash-retina-generate'
p776
NsS'tizen-hw-acceleration'
p777
NsS'iphone_bundle_localisations'
p778
NsS'tizen-dist1-key'
p779
NsS'wp81-custom-manifest-fill'
p780
NsS'wp8-custom-manifest'
p781
NsS'nds-bannertitle-ge'
p782
NsS'iphone-sign-for-distribution'
p783
NsS'wp8-tile-fliptemplate-medium-back-image'
p784
NsS'wp8-publisher-id'
p785
NsS'icon'
p786
NsS'wp8-exclude-wxga'
p787
NsS'wp81-identity-name'
p788
NsS'uiq3-icon2-mask'
p789
NsS'iphone-splashscreen-portrait'
p790
NsS'iphone-icon-high-res'
p791
NsS'ws81-distribution-pfx-password'
p792
NsS'playbook-author'
p793
NsS'android-icon-xhdpi'
p794
NsS'linux-ext-lib'
p795
(lp796
sS'blackberry-permissions-access-internet'
p797
NsS'wp8-exclude-720p'
p798
NsS'lgtv-use-drm'
p799
NsS'symbian-platsecflags'
p800
NsS'ws8-description'
p801
NsS'blackberry-playbook-icon'
p802
NsS'copyright'
p803
NsS'win32-gles-directory'
p804
NsS'version'
p805
NsS'iphone-uiviewcontroller-based-status-bar'
p806
NsS'ws81-logo-image150x150'
p807
NsS'osx-signing-identity-app'
p808
NsS'tizen-project-url'
p809
NsS'symbian-icon-svg'
p810
NsS'android-aliasname'
p811
NsS'psp-dlgmanual'
p812
NsS'brew-uid'
p813
NsS'symbian-locationsupport'
p814
NsS'wp81-logo-image50x50'
p815
NsS'ws8-ext-managed-dll'
p816
(lp817
sS'nds-bannertitle-it'
p818
NsS'ws81-custom-manifest-fill'
p819
NsS'ws8-ext-sdk-manifest-part'
p820
(lp821
sS'uiq3-icon1-mask'
p822
NsS'winmobile-icon16'
p823
NsS'ws8-product-name'
p824
NsS'blackberry-cskpass'
p825
NsS'winmobile-start-menu-folder'
p826
NsS'brew-clsid'
p827
NsS'roku-requires-bluetooth'
p828
NsS'ws8-ext-device-capabilities'
p829
(lp830
sS'blackberry-permissions-use-camera'
p831
NsS'ws81-extra-pri'
p832
(lp833
sS'iphone-prerendered-icon'
p834
NsS'iphone-appid'
p835
NsS'ws8-identity-name'
p836
NsS'tizen-dist2-CA-path'
p837
NsS'android-external-jars'
p838
(lp839
sS'winmobile-icon64'
p840
NsS'blackberry-permissions-post-notification'
p841
NsS'winmobile-setup-dll'
p842
NsS'firefoxos-manifest'
p843
NsS'win8-winrt-extra-res'
p844
(lp845
sS'wp81-ext-sdk-manifest-part'
p846
(lp847
sS'symbian9-uid'
p848
NsS'iphone-icon-ipad-ios7'
p849
NsS'winmobile-trace-file'
p850
NsS'roku-splash-color'
p851
NsS'psp-appversion'
p852
NsS'ws8-publisher-id'
p853
NsS'android-supports-gl-texture'
p854
(lp855
sS'winmobile-png45'
p856
NsS'wp81-extra-res'
p857
(lp858
sS'android-storepass'
p859
NsS'osx-signing-identity-inst'
p860
NsS'android-custom-activity'
p861
NsS'psp-discversion'
p862
NsS'wp81-ext-managed-dll'
p863
(lp864
sS'psp-copyright'
p865
NsS'embed-icf'
p866
NsS'tizen-manifest'
p867
NsS'osx-icon'
p868
NsS'webos-appinfo'
p869
NsS'psp-dlghealthwarning'
p870
NsS'webos-appid'
p871
NsS'roku-icon-side-hd'
p872
NsS'iphone-icon-ipad-search-high-res-ios7'
p873
NsS'ws81-ext-sdk-manifest-part'
p874
(lp875
sS'loader_name_prefix'
p876
NsS'iphone-launch-dir'
p877
NsS'nds-titlename'
p878
NsS'ws81-logo-image50x50'
p879
NsS'wp81-custom-manifest'
p880
NsS'osx-entitlements-plist'
p881
NsS'psp-dlgicon0'
p882
NsS'winmobile-nouninstall'
p883
NsS'psp-discid'
p884
NsS'tizen-dist2-password'
p885
NsS'ws8-ext-sdk-ref'
p886
(lp887
sS'iphone-extra-string'
p888
(lp889
sS'version-string'
p890
NsS'iphone-icon-high-res-ios7'
p891
NsS'blackberry-permissions-record-audio'
p892
NsS'ws8-certificate-end-date'
p893
NsS'tizen-so'
p894
(lp895
sS'wp8-tile-fliptemplate-small-image'
p896
NsS'playbook-authorid'
p897
NsS'iphone-signing-identity'
p898
NsS'roku-persist-quota'
p899
NsS'nds-bannertitle-fr'
p900
NsS'ws8-distribution-pfx'
p901
NsS'ws8-publisher-display-name'
p902
NsS'brew-icon-small'
p903
NsS'psp-dlgpic2'
p904
NsS'psp-dlgpic0'
p905
NsS'psp-pic0'
p906
NsS'psp-pic1'
p907
NsS'win32-pref-windowtitle'
p908
NsS'psp-icon0'
p909
NsS'psp-icon1'
p910
NsS'ws81-identity-name'
p911
NsS'winmobile-icon'
p912
NsS'iphone-no-splash'
p913
NsS'iphone-splash'
p914
NsS'iphone-app-fonts'
p915
NsS'wp8-ext-native-dll'
p916
(lp917
sS'wp81-splash-screen-image480x800'
p918
NsS'ws81-distribution-cer'
p919
NsS'iphone-backgroundmode-audio'
p920
NsS'uiq3-icon2'
p921
NsS'uiq3-icon3'
p922
NsS'uiq3-icon1'
p923
NsS'uiq3-icon1-format'
p924
NsS'ws8-logo-image50x50'
p925
NsS'symbian-icon2-mask-black'
p926
NsS'symbian-run-on-install'
p927
NsS'wp81-description'
p928
NsS'ws81-publisher-display-name'
p929
NsS'firefoxos-xulrunner'
p930
NsS'symbian-soundrecordsupport'
p931
NsS'nds-bannertitle-sp'
p932
NsS'psp-producer'
p933
NsS'iphone-apple-wwdr-cert'
p934
NsS'android-icon-nonstandard'
p935
NsS'win32-pref-processtitle'
p936
NsS'nds-bannertitle-hn'
p937
NsS'tizen-dist2-key'
p938
NsS'brew-depends'
p939
NsS'ws81-custom-manifest'
p940
NsS'iphone-icon-ipad-search-ios7'
p941
NsS'brew-icon-medium'
p942
NsS'iphone-bundle-url-name'
p943
NsS'wp8-tile-fliptemplate-large-front-image'
p944
NsS'tizen-dist2-CA-root-path'
p945
NsS'ws81-description'
p946
NsS'uiq3-icon3-format'
p947
NsS'ws81-logo-image30x30'
p948
NsS'win8-phone-extra-res'
p949
(lp950
sS'iphone-signing-host'
p951
NsS'tizen-icon'
p952
NsS'osx-info-plist'
p953
NsS'symbian-icon1-format'
p954
NsS'win8-store-extra-res'
p955
(lp956
sS'blackberry-authorid'
p957
NsS'ws81-publisher-id'
p958
NsS'ws81-distribution-pfx'
p959
NsS'wp8-description'
p960
NsS'iphone-link-opts'
p961
(lp962
sS'ws81-ext-sdk-ref'
p963
(lp964
sS'roku-splash-min-time'
p965
NsS'wp8-tile-fliptemplate-medium-front-image'
p966
NsS'provider'
p967
NsS'playbook-keystore'
p968
NsS'tizen-appid'
p969
NsS'wp8-extra-res'
p970
(lp971
sS'symbian-osexecsupport'
p972
NsS'android-install-location'
p973
NsS'nds-privatesavedatasize'
p974
NsS'playbook-storepass'
p975
NsS'android-icon-ldpi'
p976
NsS'manufacturer'
p977
NsS'itunes-artwork'
p978
NsS'iphone-extra-sections'
p979
NsS'ws81-product-name'
p980
NsS'ws81-ext-native-dll'
p981
(lp982
sS'ws8-extra-pri'
p983
(lp984
sS'wp8-product-id'
p985
NsS'ws8-logo-image30x30'
p986
NsS'wp8-ext-managed-dll'
p987
(lp988
sS'iphone-splashscreen-landscape'
p989
NsS'symbian-maxheapsize'
p990
NsS'nds-makercode'
p991
NsS'priv-sign-key'
p992
NsS'networking'
p993
NsS'android-icon'
p994
NsS'iphone-icon-settings'
p995
NsS'wp81-phone-product-id'
p996
NsS'firefoxos-icon-60X60'
p997
NsS'iphone-distribution-cert'
p998
NsS'android_extra_strings'
p999
NsS'nds-bannertitle-en'
p1000
NsS'playbook-cskpass'
p1001
NsS'android-so'
p1002
(lp1003
sS'wp8-higher-mem'
p1004
NsS'wp8-ext-sdk-ref'
p1005
(lp1006
sS'wp8-fast-resume-mode'
p1007
NsS'roku-splash-screen-hd'
p1008
NsS'iphone-bundle-url-schemes'
p1009
NsS'roku-screensaver-private'
p1010
NsS'osx-extra-res'
p1011
(lp1012
sS'ws81-extra-res'
p1013
(lp1014
sS'playbook-icon'
p1015
NsS'uid'
p1016
NsS'pkguid-as-uid'
p1017
NsS'wp81-ext-native-dll'
p1018
(lp1019
sS'tizen-dist1-password'
p1020
NsS'roku-screensaver-title'
p1021
NsS'osx-minimum-osx-version'
p1022
NsS'symbian-cert'
p1023
NsS'iphone-icon'
p1024
NsS'ws81-ext-capabilities'
p1025
(lp1026
sS'ws8-distribution-cer'
p1027
NsS'playbook-access-shared'
p1028
NsS'iphone-icon-ipad-high-res-ios7'
p1029
NsS'iphone-link-libs'
p1030
(lp1031
sS'wp8-exclude-wvga'
p1032
NsS'assets'
p1033
NsS'wp8-tile-fliptemplate-large-back-image'
p1034
NsS'wp8-custom-manifest-fill'
p1035
NsS'pub-sign-key'
p1036
NsS'android-extra-strings'
p1037
NsS'tizen-author-CA-path'
p1038
Nssg337
g573
sbssS'platform'
p1039
S'S3E'
p1040
sg67
S'1.0'
p1041
sS'arcade_platform'
p1042
g4
sS'extensions'
p1043
(dp1044
sS'source_groups_tree'
p1045
(dp1046
S'(libpng)'
p1047
(dp1048
S'h'
p1049
(dp1050
S'e:/program files (x86)/marmelade/7.4/modules/third_party/libpng/h/png.h'
p1051
(lp1052
I1
a(dp1053
asS'e:/program files (x86)/marmelade/7.4/modules/third_party/libpng/h/pngconf.h'
p1054
(lp1055
I1
ag1053
assS'e:/program files (x86)/marmelade/7.4/modules/third_party/libpng/libpng.mkf'
p1056
(lp1057
I1
a(dp1058
assS'(libjpeg)'
p1059
(dp1060
S'e:/program files (x86)/marmelade/7.4/modules/third_party/libjpeg/libjpeg.mkf'
p1061
(lp1062
I1
a(dp1063
asg1049
(dp1064
S'e:/program files (x86)/marmelade/7.4/modules/third_party/libjpeg/h/cderror.h'
p1065
(lp1066
I1
a(dp1067
asS'e:/program files (x86)/marmelade/7.4/modules/third_party/libjpeg/h/jversion.h'
p1068
(lp1069
I1
ag1067
asS'e:/program files (x86)/marmelade/7.4/modules/third_party/libjpeg/h/jmemsys.h'
p1070
(lp1071
I1
ag1067
asS'e:/program files (x86)/marmelade/7.4/modules/third_party/libjpeg/h/transupp.h'
p1072
(lp1073
I1
ag1067
asS'e:/program files (x86)/marmelade/7.4/modules/third_party/libjpeg/h/cdjpeg.h'
p1074
(lp1075
I1
ag1067
asS'e:/program files (x86)/marmelade/7.4/modules/third_party/libjpeg/h/jpeglib.h'
p1076
(lp1077
I1
ag1067
asS'e:/program files (x86)/marmelade/7.4/modules/third_party/libjpeg/h/jpegint.h'
p1078
(lp1079
I1
ag1067
asS'e:/program files (x86)/marmelade/7.4/modules/third_party/libjpeg/h/jchuff.h'
p1080
(lp1081
I1
ag1067
asS'e:/program files (x86)/marmelade/7.4/modules/third_party/libjpeg/h/jmorecfg.h'
p1082
(lp1083
I1
ag1067
asS'e:/program files (x86)/marmelade/7.4/modules/third_party/libjpeg/h/jconfig.h'
p1084
(lp1085
I1
ag1067
asS'e:/program files (x86)/marmelade/7.4/modules/third_party/libjpeg/h/jdhuff.h'
p1086
(lp1087
I1
ag1067
asS'e:/program files (x86)/marmelade/7.4/modules/third_party/libjpeg/h/jinclude.h'
p1088
(lp1089
I1
ag1067
asS'e:/program files (x86)/marmelade/7.4/modules/third_party/libjpeg/h/jerror.h'
p1090
(lp1091
I1
ag1067
asS'e:/program files (x86)/marmelade/7.4/modules/third_party/libjpeg/h/jdct.h'
p1092
(lp1093
I1
ag1067
asssS'(tiniconv)'
p1094
(dp1095
S'e:/program files (x86)/marmelade/7.4/modules/third_party/tiniconv/tiniconv.mkf'
p1096
(lp1097
I1
a(dp1098
asS'e:/program files (x86)/marmelade/7.4/modules/third_party/tiniconv/source/tiniconv_int.h'
p1099
(lp1100
I1
a(dp1101
asS'e:/program files (x86)/marmelade/7.4/modules/third_party/tiniconv/source/tiniconv.h'
p1102
(lp1103
I1
ag1101
assS'(SoundEngine)'
p1104
(dp1105
S'e:/documents/github/mastermind-remake/modules/soundengine/h/IwSound.h'
p1106
(lp1107
I1
a(dp1108
asS'e:/documents/github/mastermind-remake/modules/soundengine/source/IwSoundManager.cpp'
p1109
(lp1110
I1
ag1108
asS'e:/documents/github/mastermind-remake/modules/soundengine/source/IwSoundSpec.cpp'
p1111
(lp1112
I1
ag1108
asS'e:/documents/github/mastermind-remake/modules/soundengine/h/IwSoundParams.h'
p1113
(lp1114
I1
ag1108
asS'e:/documents/github/mastermind-remake/modules/soundengine/soundengine.mkf'
p1115
(lp1116
I1
a(dp1117
asS'e:/documents/github/mastermind-remake/modules/soundengine/h/IwSoundPCM.h'
p1118
(lp1119
I1
ag1108
asS'e:/documents/github/mastermind-remake/modules/soundengine/source/IwSoundParams.cpp'
p1120
(lp1121
I1
ag1108
asS'e:/documents/github/mastermind-remake/modules/soundengine/source/IwSoundADPCM.cpp'
p1122
(lp1123
I1
ag1108
asS'Docs'
p1124
(dp1125
S'e:/documents/github/mastermind-remake/modules/soundengine/docs/iwsound.config.txt'
p1126
(lp1127
I1
ag1108
assS'e:/documents/github/mastermind-remake/modules/soundengine/h/IwSoundInst.h'
p1128
(lp1129
I1
ag1108
asS'e:/documents/github/mastermind-remake/modules/soundengine/h/IwResHandlerWAV.h'
p1130
(lp1131
I1
ag1108
asS'e:/documents/github/mastermind-remake/modules/soundengine/h/IwSoundManager.h'
p1132
(lp1133
I1
ag1108
asS'e:/documents/github/mastermind-remake/modules/soundengine/h/IwSoundADPCM.h'
p1134
(lp1135
I1
ag1108
asS'e:/documents/github/mastermind-remake/modules/soundengine/source/IwSoundPCM.cpp'
p1136
(lp1137
I1
ag1108
asS'e:/documents/github/mastermind-remake/modules/soundengine/source/IwSoundData.cpp'
p1138
(lp1139
I1
ag1108
asS'e:/documents/github/mastermind-remake/modules/soundengine/h/IwSoundData.h'
p1140
(lp1141
I1
ag1108
asS'e:/documents/github/mastermind-remake/modules/soundengine/source/IwSoundInst.cpp'
p1142
(lp1143
I1
ag1108
asS'e:/documents/github/mastermind-remake/modules/soundengine/source/IwSoundWAV.cpp'
p1144
(lp1145
I1
ag1108
asS'e:/documents/github/mastermind-remake/modules/soundengine/source/IwSoundGroup.cpp'
p1146
(lp1147
I1
ag1108
asS'e:/documents/github/mastermind-remake/modules/soundengine/h/IwSoundSpec.h'
p1148
(lp1149
I1
ag1108
asS'e:/documents/github/mastermind-remake/modules/soundengine/source/IwResHandlerWAV.cpp'
p1150
(lp1151
I1
ag1108
asS'e:/documents/github/mastermind-remake/modules/soundengine/h/IwSoundGroup.h'
p1152
(lp1153
I1
ag1108
asS'e:/documents/github/mastermind-remake/modules/soundengine/h/IwSoundWAV.h'
p1154
(lp1155
I1
ag1108
assS'source'
p1156
(dp1157
S'e:/Documents/GitHub/Mastermind-Remake/Mastermind/source/MainMenu.cpp'
p1158
(lp1159
I1
a(dp1160
asS'e:/Documents/GitHub/Mastermind-Remake/Mastermind/source/Button.h'
p1161
(lp1162
I1
ag1160
asS'e:/Documents/GitHub/Mastermind-Remake/Mastermind/source/Resource.cpp'
p1163
(lp1164
I1
ag1160
asS'e:/Documents/GitHub/Mastermind-Remake/Mastermind/source/Game.cpp'
p1165
(lp1166
I1
ag1160
asS'e:/Documents/GitHub/Mastermind-Remake/Mastermind/source/Mastermind.h'
p1167
(lp1168
I1
ag1160
asS'e:/Documents/GitHub/Mastermind-Remake/Mastermind/source/Input.cpp'
p1169
(lp1170
I1
ag1160
asS'e:/Documents/GitHub/Mastermind-Remake/Mastermind/source/Scene.cpp'
p1171
(lp1172
I1
ag1160
asS'e:/Documents/GitHub/Mastermind-Remake/Mastermind/source/PauseMenu.h'
p1173
(lp1174
I1
ag1160
asS'e:/Documents/GitHub/Mastermind-Remake/Mastermind/source/Main.cpp'
p1175
(lp1176
I1
ag1160
asS'e:/Documents/GitHub/Mastermind-Remake/Mastermind/source/MainMenu.h'
p1177
(lp1178
I1
ag1160
asS'e:/Documents/GitHub/Mastermind-Remake/Mastermind/source/Game.h'
p1179
(lp1180
I1
ag1160
asS'e:/Documents/GitHub/Mastermind-Remake/Mastermind/source/Rect.cpp'
p1181
(lp1182
I1
ag1160
asS'e:/Documents/GitHub/Mastermind-Remake/Mastermind/source/Input.h'
p1183
(lp1184
I1
ag1160
asS'e:/Documents/GitHub/Mastermind-Remake/Mastermind/source/Audio.h'
p1185
(lp1186
I1
ag1160
asS'e:/Documents/GitHub/Mastermind-Remake/Mastermind/source/Rect.h'
p1187
(lp1188
I1
ag1160
asS'e:/Documents/GitHub/Mastermind-Remake/Mastermind/source/Button.cpp'
p1189
(lp1190
I1
ag1160
asS'e:/Documents/GitHub/Mastermind-Remake/Mastermind/source/PauseMenu.cpp'
p1191
(lp1192
I1
ag1160
asS'e:/Documents/GitHub/Mastermind-Remake/Mastermind/source/Audio.cpp'
p1193
(lp1194
I1
ag1160
asS'e:/Documents/GitHub/Mastermind-Remake/Mastermind/source/Scene.h'
p1195
(lp1196
I1
ag1160
asS'e:/Documents/GitHub/Mastermind-Remake/Mastermind/source/Mastermind.cpp'
p1197
(lp1198
I1
ag1160
asS'e:/Documents/GitHub/Mastermind-Remake/Mastermind/source/Resource.h'
p1199
(lp1200
I1
ag1160
assS'Extensions'
p1201
(dp1202
S'PVRTexTool'
p1203
(dp1204
S'interface'
p1205
(dp1206
S'e:/program files (x86)/marmelade/7.4/extensions/pvrtextool/interface/PVRTexTool.defines.txt'
p1207
(lp1208
I1
a(dp1209
asS'e:/program files (x86)/marmelade/7.4/extensions/pvrtextool/interface/PVRTexTool_interface.cpp'
p1210
(lp1211
I1
ag1209
assS'e:/program files (x86)/marmelade/7.4/extensions/pvrtextool/h/PVRTexTool.h'
p1212
(lp1213
I1
ag1209
asS'e:/program files (x86)/marmelade/7.4/extensions/pvrtextool/pvrtextool.mkf'
p1214
(lp1215
I1
a(dp1216
asssS"'Marmalade Studio'"
p1217
(dp1218
S'iw2dscenegraph'
p1219
(dp1220
S'e:/program files (x86)/marmelade/7.4/modules/iw2dscenegraph/source/Iw2DSceneGraph.cpp'
p1221
(lp1222
I1
a(dp1223
asS'e:/program files (x86)/marmelade/7.4/modules/iw2dscenegraph/docs/iw2dscenegraph.defines.txt'
p1224
(lp1225
I1
ag1223
asS'e:/program files (x86)/marmelade/7.4/modules/iw2dscenegraph/h/Iw2DSceneGraph.h'
p1226
(lp1227
I1
ag1223
asS'e:/program files (x86)/marmelade/7.4/modules/iw2dscenegraph/iw2dscenegraph.mkf'
p1228
(lp1229
I1
a(dp1230
assS'iwgl'
p1231
(dp1232
S'e:/program files (x86)/marmelade/7.4/modules/iwgl/iwgl.mkf'
p1233
(lp1234
I1
a(dp1235
asS'e:/program files (x86)/marmelade/7.4/modules/iwgl/h/IwGL.h'
p1236
(lp1237
I1
a(dp1238
asS'e:/program files (x86)/marmelade/7.4/modules/iwgl/docs/iwgl.config.txt'
p1239
(lp1240
I1
ag1238
asS'e:/program files (x86)/marmelade/7.4/modules/iwgl/h/IwGLExt.h'
p1241
(lp1242
I1
ag1238
assS'iw2d'
p1243
(dp1244
S'e:/program files (x86)/marmelade/7.4/modules/iw2d/docs/iw2d_public.defines.txt'
p1245
(lp1246
I1
a(dp1247
asS'e:/program files (x86)/marmelade/7.4/modules/iw2d/docs/iw2d.config.txt'
p1248
(lp1249
I1
ag1247
asS'e:/program files (x86)/marmelade/7.4/modules/iw2d/h/Iw2D.h'
p1250
(lp1251
I1
ag1247
asS'e:/program files (x86)/marmelade/7.4/modules/iw2d/iw2d.mkf'
p1252
(lp1253
I1
a(dp1254
assS'iwgxfont'
p1255
(dp1256
S'e:/program files (x86)/marmelade/7.4/modules/iwgxfont/h/IwGxFontPreparedData.h'
p1257
(lp1258
I1
a(dp1259
asS'e:/program files (x86)/marmelade/7.4/modules/iwgxfont/h/IwGxFontTypes.h'
p1260
(lp1261
I1
ag1259
asS'e:/program files (x86)/marmelade/7.4/modules/iwgxfont/docs/iwgxfont.config.txt'
p1262
(lp1263
I1
ag1259
asS'e:/program files (x86)/marmelade/7.4/modules/iwgxfont/h/IwGxFontState.h'
p1264
(lp1265
I1
ag1259
asS'e:/program files (x86)/marmelade/7.4/modules/iwgxfont/h/IwGxFontGlyph.h'
p1266
(lp1267
I1
ag1259
asS'e:/program files (x86)/marmelade/7.4/modules/iwgxfont/h/IwGxFont.h'
p1268
(lp1269
I1
ag1259
asS'e:/program files (x86)/marmelade/7.4/modules/iwgxfont/iwgxfont.mkf'
p1270
(lp1271
I1
a(dp1272
asS'e:/program files (x86)/marmelade/7.4/modules/iwgxfont/h/IwGxFontContainer.h'
p1273
(lp1274
I1
ag1259
asS'e:/program files (x86)/marmelade/7.4/modules/iwgxfont/docs/iwgxfont_public.defines.txt'
p1275
(lp1276
I1
ag1259
assS'iwgeom'
p1277
(dp1278
S'e:/program files (x86)/marmelade/7.4/modules/iwgeom/h/IwGeomMat2D.h'
p1279
(lp1280
I1
a(dp1281
asS'e:/program files (x86)/marmelade/7.4/modules/iwgeom/h/IwGeomPlane.h'
p1282
(lp1283
I1
ag1281
asS'e:/program files (x86)/marmelade/7.4/modules/iwgeom/h/IwGeomVec2.h'
p1284
(lp1285
I1
ag1281
asS'e:/program files (x86)/marmelade/7.4/modules/iwgeom/h/IwGeomCore.h'
p1286
(lp1287
I1
ag1281
asS'e:/program files (x86)/marmelade/7.4/modules/iwgeom/h/IwGeomMenu.h'
p1288
(lp1289
I1
ag1281
asS'e:/program files (x86)/marmelade/7.4/modules/iwgeom/h/IwGeomFPlane.h'
p1290
(lp1291
I1
ag1281
asS'e:/program files (x86)/marmelade/7.4/modules/iwgeom/h/IwGeomFIntersect.h'
p1292
(lp1293
I1
ag1281
asS'e:/program files (x86)/marmelade/7.4/modules/iwgeom/h/IwGeomQuat.h.tpl'
p1294
(lp1295
I1
ag1281
asS'e:/program files (x86)/marmelade/7.4/modules/iwgeom/h/IwGeomSVec4.h'
p1296
(lp1297
I1
ag1281
asS'e:/program files (x86)/marmelade/7.4/modules/iwgeom/h/IwGeomFBBox.h'
p1298
(lp1299
I1
ag1281
asS'e:/program files (x86)/marmelade/7.4/modules/iwgeom/docs/iwgeom.config.txt'
p1300
(lp1301
I1
ag1281
asS'e:/program files (x86)/marmelade/7.4/modules/iwgeom/h/IwGeomVec.h'
p1302
(lp1303
I1
ag1281
asS'e:/program files (x86)/marmelade/7.4/modules/iwgeom/h/IwGeomSphere.h'
p1304
(lp1305
I1
ag1281
asS'e:/program files (x86)/marmelade/7.4/modules/iwgeom/h/IwGeomFSphere.h'
p1306
(lp1307
I1
ag1281
asS'e:/program files (x86)/marmelade/7.4/modules/iwgeom/h/IwGeom.h'
p1308
(lp1309
I1
ag1281
asS'e:/program files (x86)/marmelade/7.4/modules/iwgeom/h/IwGeomMat.h'
p1310
(lp1311
I1
ag1281
asS'e:/program files (x86)/marmelade/7.4/modules/iwgeom/h/IwGeomVec4.h'
p1312
(lp1313
I1
ag1281
asS'e:/program files (x86)/marmelade/7.4/modules/iwgeom/h/IwGeomFVec3.h'
p1314
(lp1315
I1
ag1281
asS'e:/program files (x86)/marmelade/7.4/modules/iwgeom/h/IwGeomFVec2.h'
p1316
(lp1317
I1
ag1281
asS'e:/program files (x86)/marmelade/7.4/modules/iwgeom/h/IwGeomBBox.h'
p1318
(lp1319
I1
ag1281
asS'e:/program files (x86)/marmelade/7.4/modules/iwgeom/h/IwGeomFMat.h'
p1320
(lp1321
I1
ag1281
asS'e:/program files (x86)/marmelade/7.4/modules/iwgeom/h/IwGeomFVec4.h'
p1322
(lp1323
I1
ag1281
asS'e:/program files (x86)/marmelade/7.4/modules/iwgeom/h/IwGeomMat.h.tpl'
p1324
(lp1325
I1
ag1281
asS'e:/program files (x86)/marmelade/7.4/modules/iwgeom/h/IwGeomVec3.h'
p1326
(lp1327
I1
ag1281
asS'e:/program files (x86)/marmelade/7.4/modules/iwgeom/h/IwGeomSVec2.h'
p1328
(lp1329
I1
ag1281
asS'e:/program files (x86)/marmelade/7.4/modules/iwgeom/h/IwGeomFQuat.h'
p1330
(lp1331
I1
ag1281
asS'e:/program files (x86)/marmelade/7.4/modules/iwgeom/h/IwGeomSVec3.h'
p1332
(lp1333
I1
ag1281
asS'e:/program files (x86)/marmelade/7.4/modules/iwgeom/h/IwGeomFMat2D.h'
p1334
(lp1335
I1
ag1281
asS'e:/program files (x86)/marmelade/7.4/modules/iwgeom/h/IwGeomIntersect.h'
p1336
(lp1337
I1
ag1281
asS'e:/program files (x86)/marmelade/7.4/modules/iwgeom/h/IwGeomQuat.h'
p1338
(lp1339
I1
ag1281
asS'e:/program files (x86)/marmelade/7.4/modules/iwgeom/h/IwGeomLegacy.h'
p1340
(lp1341
I1
ag1281
asS'e:/program files (x86)/marmelade/7.4/modules/iwgeom/h/IwGeomVec.h.tpl'
p1342
(lp1343
I1
ag1281
asS'e:/program files (x86)/marmelade/7.4/modules/iwgeom/h/IwGeomMat2D.h.tpl'
p1344
(lp1345
I1
ag1281
asS'e:/program files (x86)/marmelade/7.4/modules/iwgeom/h/IwGeomSqrt.h'
p1346
(lp1347
I1
ag1281
asS'e:/program files (x86)/marmelade/7.4/modules/iwgeom/iwgeom.mkf'
p1348
(lp1349
I1
a(dp1350
asS'e:/program files (x86)/marmelade/7.4/modules/iwgeom/h/IwGeomSQuat.h'
p1351
(lp1352
I1
ag1281
assS'iwresmanager'
p1353
(dp1354
S'e:/program files (x86)/marmelade/7.4/modules/iwresmanager/h/IwResHandlerImage.h'
p1355
(lp1356
I1
a(dp1357
asS'e:/program files (x86)/marmelade/7.4/modules/iwresmanager/h/IwResManagerClass.h'
p1358
(lp1359
I1
ag1357
asS'e:/program files (x86)/marmelade/7.4/modules/iwresmanager/h/IwResHandlerGROUP.h'
p1360
(lp1361
I1
ag1357
asS'e:/program files (x86)/marmelade/7.4/modules/iwresmanager/iwresmanager.mkf'
p1362
(lp1363
I1
a(dp1364
asS'e:/program files (x86)/marmelade/7.4/modules/iwresmanager/h/IwResHandlerITX.h'
p1365
(lp1366
I1
ag1357
asS'e:/program files (x86)/marmelade/7.4/modules/iwresmanager/h/IwResManager.h'
p1367
(lp1368
I1
ag1357
asS'e:/program files (x86)/marmelade/7.4/modules/iwresmanager/h/IwResGroup.h'
p1369
(lp1370
I1
ag1357
asS'e:/program files (x86)/marmelade/7.4/modules/iwresmanager/h/IwResSerialise.h'
p1371
(lp1372
I1
ag1357
asS'e:/program files (x86)/marmelade/7.4/modules/iwresmanager/docs/iwresmanager.config.txt'
p1373
(lp1374
I1
ag1357
asS'e:/program files (x86)/marmelade/7.4/modules/iwresmanager/h/IwResHandler.h'
p1375
(lp1376
I1
ag1357
assS'iwgx'
p1377
(dp1378
S'e:/program files (x86)/marmelade/7.4/modules/iwgx/docs/iwgx.config.txt'
p1379
(lp1380
I1
a(dp1381
asS'e:/program files (x86)/marmelade/7.4/modules/iwgx/h/IwGxStream.h'
p1382
(lp1383
I1
ag1381
asS'e:/program files (x86)/marmelade/7.4/modules/iwgx/h/IwGxTransformSW.h'
p1384
(lp1385
I1
ag1381
asS'e:/program files (x86)/marmelade/7.4/modules/iwgx/h/IwFColour.h'
p1386
(lp1387
I1
ag1381
asS'e:/program files (x86)/marmelade/7.4/modules/iwgx/h/IwDebugPrim.h'
p1388
(lp1389
I1
ag1381
asS'e:/program files (x86)/marmelade/7.4/modules/iwgx/h/IwGxState.h'
p1390
(lp1391
I1
ag1381
asS'e:/program files (x86)/marmelade/7.4/modules/iwgx/h/IwGxError.h'
p1392
(lp1393
I1
ag1381
asS'e:/program files (x86)/marmelade/7.4/modules/iwgx/h/IwGxShaderTechnique.h'
p1394
(lp1395
I1
ag1381
asS'e:/program files (x86)/marmelade/7.4/modules/iwgx/h/IwTPage.h'
p1396
(lp1397
I1
ag1381
asS'e:/program files (x86)/marmelade/7.4/modules/iwgx/h/IwResHandlerMTL.h'
p1398
(lp1399
I1
ag1381
asS'e:/program files (x86)/marmelade/7.4/modules/iwgx/h/IwGxDebug.h'
p1400
(lp1401
I1
ag1381
asS'e:/program files (x86)/marmelade/7.4/modules/iwgx/h/IwGxMetrics.h'
p1402
(lp1403
I1
ag1381
asS'e:/program files (x86)/marmelade/7.4/modules/iwgx/h/IwClip.inl'
p1404
(lp1405
I1
ag1381
asS'e:/program files (x86)/marmelade/7.4/modules/iwgx/h/IwColour.h'
p1406
(lp1407
I1
ag1381
asS'e:/program files (x86)/marmelade/7.4/modules/iwgx/h/IwClip.h'
p1408
(lp1409
I1
ag1381
asS'e:/program files (x86)/marmelade/7.4/modules/iwgx/h/IwMatAnim.h'
p1410
(lp1411
I1
ag1381
asS'e:/program files (x86)/marmelade/7.4/modules/iwgx/h/IwGxSurface.h'
p1412
(lp1413
I1
ag1381
asS'e:/program files (x86)/marmelade/7.4/modules/iwgx/iwgx.mkf'
p1414
(lp1415
I1
a(dp1416
asS'e:/program files (x86)/marmelade/7.4/modules/iwgx/h/IwTexture.h'
p1417
(lp1418
I1
ag1381
asS'e:/program files (x86)/marmelade/7.4/modules/iwgx/h/IwGxPrint.h'
p1419
(lp1420
I1
ag1381
asS'e:/program files (x86)/marmelade/7.4/modules/iwgx/h/IwGxFuncTable.h'
p1421
(lp1422
I1
ag1381
asS'e:/program files (x86)/marmelade/7.4/modules/iwgx/docs/iwgx_public.defines.txt'
p1423
(lp1424
I1
ag1381
asS'e:/program files (x86)/marmelade/7.4/modules/iwgx/h/IwMaterial.h'
p1425
(lp1426
I1
ag1381
asS'e:/program files (x86)/marmelade/7.4/modules/iwgx/h/IwGxTypes.h'
p1427
(lp1428
I1
ag1381
asS'e:/program files (x86)/marmelade/7.4/modules/iwgx/h/IwGx.h'
p1429
(lp1430
I1
ag1381
assS'iw2dscenegraphcore'
p1431
(dp1432
S'e:/program files (x86)/marmelade/7.4/modules/iw2dscenegraphcore/iw2dscenegraphcore.mkf'
p1433
(lp1434
I1
a(dp1435
asS'e:/program files (x86)/marmelade/7.4/modules/iw2dscenegraphcore/h/Iw2DSceneGraphCore.h'
p1436
(lp1437
I1
a(dp1438
asS'e:/program files (x86)/marmelade/7.4/modules/iw2dscenegraphcore/source/Iw2DSceneGraphCore.cpp'
p1439
(lp1440
I1
ag1438
assS'iwutil'
p1441
(dp1442
S'e:/program files (x86)/marmelade/7.4/modules/iwutil/h/IwHashString.h'
p1443
(lp1444
I1
a(dp1445
asS'e:/program files (x86)/marmelade/7.4/modules/iwutil/h/IwClassFactory.h'
p1446
(lp1447
I1
ag1445
asS'e:/program files (x86)/marmelade/7.4/modules/iwutil/h/IwMemBucket.h'
p1448
(lp1449
I1
ag1445
asS'e:/program files (x86)/marmelade/7.4/modules/iwutil/h/IwBuffer.h'
p1450
(lp1451
I1
ag1445
asS'e:/program files (x86)/marmelade/7.4/modules/iwutil/h/IwMenu.h'
p1452
(lp1453
I1
ag1445
asS'e:/program files (x86)/marmelade/7.4/modules/iwutil/h/IwArray.h'
p1454
(lp1455
I1
ag1445
asS'e:/program files (x86)/marmelade/7.4/modules/iwutil/h/IwImage.h'
p1456
(lp1457
I1
ag1445
asS'e:/program files (x86)/marmelade/7.4/modules/iwutil/h/IwUTF8.h'
p1458
(lp1459
I1
ag1445
asS'e:/program files (x86)/marmelade/7.4/modules/iwutil/h/IwSerialise.h'
p1460
(lp1461
I1
ag1445
asS'e:/program files (x86)/marmelade/7.4/modules/iwutil/h/IwMath.h'
p1462
(lp1463
I1
ag1445
asS'e:/program files (x86)/marmelade/7.4/modules/iwutil/h/IwUtilInitTerm.h'
p1464
(lp1465
I1
ag1445
asS'e:/program files (x86)/marmelade/7.4/modules/iwutil/h/IwEvent.h'
p1466
(lp1467
I1
ag1445
asS'e:/program files (x86)/marmelade/7.4/modules/iwutil/h/IwTextParserITX.h'
p1468
(lp1469
I1
ag1445
asS'e:/program files (x86)/marmelade/7.4/modules/iwutil/h/IwAllocator.h'
p1470
(lp1471
I1
ag1445
asS'e:/program files (x86)/marmelade/7.4/modules/iwutil/h/IwChar.h'
p1472
(lp1473
I1
ag1445
asS'e:/program files (x86)/marmelade/7.4/modules/iwutil/h/IwOptimiseThumb.h'
p1474
(lp1475
I1
ag1445
asS'e:/program files (x86)/marmelade/7.4/modules/iwutil/h/IwMemManagerDL.h'
p1476
(lp1477
I1
ag1445
asS'e:/program files (x86)/marmelade/7.4/modules/iwutil/h/IwString.h'
p1478
(lp1479
I1
ag1445
asS'e:/program files (x86)/marmelade/7.4/modules/iwutil/h/IwDivTable.h'
p1480
(lp1481
I1
ag1445
asS'e:/program files (x86)/marmelade/7.4/modules/iwutil/h/IwOptimiseSize.h'
p1482
(lp1483
I1
ag1445
asS'e:/program files (x86)/marmelade/7.4/modules/iwutil/h/IwDivide.h'
p1484
(lp1485
I1
ag1445
asS'e:/program files (x86)/marmelade/7.4/modules/iwutil/h/IwMemory.h'
p1486
(lp1487
I1
ag1445
asS'e:/program files (x86)/marmelade/7.4/modules/iwutil/h/IwSingleton.h'
p1488
(lp1489
I1
ag1445
asS'e:/program files (x86)/marmelade/7.4/modules/iwutil/h/IwList.h'
p1490
(lp1491
I1
ag1445
asS'e:/program files (x86)/marmelade/7.4/modules/iwutil/h/IwOptimiseARM.h'
p1492
(lp1493
I1
ag1445
asS'e:/program files (x86)/marmelade/7.4/modules/iwutil/h/IwDebug.h'
p1494
(lp1495
I1
ag1445
asS'e:/program files (x86)/marmelade/7.4/modules/iwutil/h/IwFibre.h'
p1496
(lp1497
I1
ag1445
asS'e:/program files (x86)/marmelade/7.4/modules/iwutil/h/IwFile.h'
p1498
(lp1499
I1
ag1445
asS'e:/program files (x86)/marmelade/7.4/modules/iwutil/h/IwCopyingPtr.h'
p1500
(lp1501
I1
ag1445
asS'e:/program files (x86)/marmelade/7.4/modules/iwutil/h/IwUtil.h'
p1502
(lp1503
I1
ag1445
asS'e:/program files (x86)/marmelade/7.4/modules/iwutil/docs/iwutil.config.txt'
p1504
(lp1505
I1
ag1445
asS'e:/program files (x86)/marmelade/7.4/modules/iwutil/h/IwOptimiseSpeed.h'
p1506
(lp1507
I1
ag1445
asS'e:/program files (x86)/marmelade/7.4/modules/iwutil/h/IwResource.h'
p1508
(lp1509
I1
ag1445
asS'e:/program files (x86)/marmelade/7.4/modules/iwutil/h/IwManaged.h'
p1510
(lp1511
I1
ag1445
asS'e:/program files (x86)/marmelade/7.4/modules/iwutil/h/IwAutoFile.h'
p1512
(lp1513
I1
ag1445
asS'e:/program files (x86)/marmelade/7.4/modules/iwutil/h/IwTextParser.h'
p1514
(lp1515
I1
ag1445
asS'e:/program files (x86)/marmelade/7.4/modules/iwutil/h/IwTextParseable.h'
p1516
(lp1517
I1
ag1445
asS'e:/program files (x86)/marmelade/7.4/modules/iwutil/h/IwManagedList.h'
p1518
(lp1519
I1
ag1445
asS'e:/program files (x86)/marmelade/7.4/modules/iwutil/iwutil.mkf'
p1520
(lp1521
I1
a(dp1522
asS'e:/program files (x86)/marmelade/7.4/modules/iwutil/h/IwTypes.h'
p1523
(lp1524
I1
ag1445
asS'e:/program files (x86)/marmelade/7.4/modules/iwutil/h/IwRuntime.h'
p1525
(lp1526
I1
ag1445
asS'e:/program files (x86)/marmelade/7.4/modules/iwutil/h/IwRandom.h'
p1527
(lp1528
I1
ag1445
asS'e:/program files (x86)/marmelade/7.4/modules/iwutil/h/IwUncopyable.h'
p1529
(lp1530
I1
ag1445
asS'e:/program files (x86)/marmelade/7.4/modules/iwutil/h/IwProfileMenu.h'
p1531
(lp1532
I1
ag1445
asS'e:/program files (x86)/marmelade/7.4/modules/iwutil/h/IwKeymap.h'
p1533
(lp1534
I1
ag1445
asS'e:/program files (x86)/marmelade/7.4/modules/iwutil/h/IwImageHelper.h'
p1535
(lp1536
I1
ag1445
asS'e:/program files (x86)/marmelade/7.4/modules/iwutil/h/IwPath.h'
p1537
(lp1538
I1
ag1445
asS'e:/program files (x86)/marmelade/7.4/modules/iwutil/h/IwVariableBitField.h'
p1539
(lp1540
I1
ag1445
asS'e:/program files (x86)/marmelade/7.4/modules/iwutil/h/IwCore.h'
p1541
(lp1542
I1
ag1445
asS'e:/program files (x86)/marmelade/7.4/modules/iwutil/h/IwMemBucketHelpers.h'
p1543
(lp1544
I1
ag1445
asssS'(zlib)'
p1545
(dp1546
g1049
(dp1547
S'e:/program files (x86)/marmelade/7.4/modules/third_party/zlib/h/zconf.h'
p1548
(lp1549
I1
a(dp1550
asS'e:/program files (x86)/marmelade/7.4/modules/third_party/zlib/h/zlib.h'
p1551
(lp1552
I1
ag1550
assS'e:/program files (x86)/marmelade/7.4/modules/third_party/zlib/zlib.mkf'
p1553
(lp1554
I1
a(dp1555
assS'(iwtween)'
p1556
(dp1557
S'e:/program files (x86)/marmelade/7.4/modules/iwtween/h/IwTween.h'
p1558
(lp1559
I1
a(dp1560
asS'e:/program files (x86)/marmelade/7.4/modules/iwtween/source/IwTween.cpp'
p1561
(lp1562
I1
ag1560
asS'e:/program files (x86)/marmelade/7.4/modules/iwtween/iwtween.mkf'
p1563
(lp1564
I1
a(dp1565
assS'(s3e-default)'
p1566
(dp1567
S'e:/program files (x86)/marmelade/7.4/s3e/s3e-default.mkf'
p1568
(lp1569
I1
a(dp1570
asssS'files'
p1571
(dp1572
S'IwGxFontPreparedData.h'
p1573
g311
(cmkb_main
File
p1574
g313
Ntp1575
Rp1576
(dp1577
S'flags'
p1578
g1259
sS'group'
p1579
(lp1580
S"'Marmalade Studio'"
p1581
ag1255
asg337
g1257
sbsS'iterator'
p1582
g311
(g1574
g313
Ntp1583
Rp1584
(dp1585
g1578
(dp1586
sg1579
(lp1587
S"'Marmalade System (S3E)'"
p1588
aS'stdc headers'
p1589
aS'c++'
p1590
asg337
S'e:/program files (x86)/marmelade/7.4/s3e/h/std/c++/iterator'
p1591
sbsS'IwGL.h'
p1592
g311
(g1574
g313
Ntp1593
Rp1594
(dp1595
g1578
g1238
sg1579
(lp1596
S"'Marmalade Studio'"
p1597
ag1231
asg337
g1236
sbsS's3e.h'
p1598
g311
(g1574
g313
Ntp1599
Rp1600
(dp1601
g1578
g1586
sg1579
(lp1602
g1588
asg337
S'e:/program files (x86)/marmelade/7.4/s3e/h/s3e.h'
p1603
sbsS'errno.h'
p1604
g311
(g1574
g313
Ntp1605
Rp1606
(dp1607
g1578
g1586
sg1579
(lp1608
g1588
aS'stdc headers'
p1609
asg337
S'e:/program files (x86)/marmelade/7.4/s3e/h/std/errno.h'
p1610
sbsS'IwSingleton.h'
p1611
g311
(g1574
g313
Ntp1612
Rp1613
(dp1614
g1578
g1445
sg1579
(lp1615
S"'Marmalade Studio'"
p1616
ag1441
asg337
g1488
sbsS'dlfcn.h'
p1617
g311
(g1574
g313
Ntp1618
Rp1619
(dp1620
g1578
g1586
sg1579
g1608
sg337
S'e:/program files (x86)/marmelade/7.4/s3e/h/std/dlfcn.h'
p1621
sbsS'IwSoundWAV.cpp'
p1622
g311
(g1574
g313
Ntp1623
Rp1624
(dp1625
g1578
g1108
sg1579
(lp1626
g1104
asg337
g1144
sbsS'sched.h'
p1627
g311
(g1574
g313
Ntp1628
Rp1629
(dp1630
g1578
g1586
sg1579
g1608
sg337
S'e:/program files (x86)/marmelade/7.4/s3e/h/std/sched.h'
p1631
sbsS'IwSoundPCM.h'
p1632
g311
(g1574
g313
Ntp1633
Rp1634
(dp1635
g1578
g1108
sg1579
g1626
sg337
g1118
sbsS'IwGeomFMat2D.h'
p1636
g311
(g1574
g313
Ntp1637
Rp1638
(dp1639
g1578
g1281
sg1579
(lp1640
S"'Marmalade Studio'"
p1641
ag1277
asg337
g1334
sbsS'cassert'
p1642
g311
(g1574
g313
Ntp1643
Rp1644
(dp1645
g1578
g1586
sg1579
g1587
sg337
S'e:/program files (x86)/marmelade/7.4/s3e/h/std/c++/cassert'
p1646
sbsS'grp.h'
p1647
g311
(g1574
g313
Ntp1648
Rp1649
(dp1650
g1578
g1586
sg1579
g1608
sg337
S'e:/program files (x86)/marmelade/7.4/s3e/h/std/grp.h'
p1651
sbsS'list'
p1652
g311
(g1574
g313
Ntp1653
Rp1654
(dp1655
g1578
g1586
sg1579
g1587
sg337
S'e:/program files (x86)/marmelade/7.4/s3e/h/std/c++/list'
p1656
sbsS'IwSoundSpec.cpp'
p1657
g311
(g1574
g313
Ntp1658
Rp1659
(dp1660
g1578
g1108
sg1579
g1626
sg337
g1111
sbsS'IwGeomMat.h.tpl'
p1661
g311
(g1574
g313
Ntp1662
Rp1663
(dp1664
g1578
g1281
sg1579
g1640
sg337
g1324
sbsS'istream'
p1665
g311
(g1574
g313
Ntp1666
Rp1667
(dp1668
g1578
g1586
sg1579
g1587
sg337
S'e:/program files (x86)/marmelade/7.4/s3e/h/std/c++/istream'
p1669
sbsS'jpeglib.h'
p1670
g311
(g1574
g313
Ntp1671
Rp1672
(dp1673
g1578
g1067
sg1579
(lp1674
g1059
ag1049
asg337
g1076
sbsS'iw2d_public.defines.txt'
p1675
g311
(g1574
g313
Ntp1676
Rp1677
(dp1678
g1578
g1247
sg1579
(lp1679
S"'Marmalade Studio'"
p1680
ag1243
asg337
g1245
sbsS'iostream.h'
p1681
g311
(g1574
g313
Ntp1682
Rp1683
(dp1684
g1578
g1586
sg1579
g1587
sg337
S'e:/program files (x86)/marmelade/7.4/s3e/h/std/c++/iostream.h'
p1685
sbsS'Mastermind.h'
p1686
g311
(g1574
g313
Ntp1687
Rp1688
(dp1689
g1578
g1160
sg1579
(lp1690
g1156
asg337
g1167
sbsS'IwSoundADPCM.h'
p1691
g311
(g1574
g313
Ntp1692
Rp1693
(dp1694
g1578
g1108
sg1579
g1626
sg337
g1134
sbsS'string'
p1695
g311
(g1574
g313
Ntp1696
Rp1697
(dp1698
g1578
g1586
sg1579
g1587
sg337
S'e:/program files (x86)/marmelade/7.4/s3e/h/std/c++/string'
p1699
sbsS'IwMemory.h'
p1700
g311
(g1574
g313
Ntp1701
Rp1702
(dp1703
g1578
g1445
sg1579
g1615
sg337
g1486
sbsS'IwGeomPlane.h'
p1704
g311
(g1574
g313
Ntp1705
Rp1706
(dp1707
g1578
g1281
sg1579
g1640
sg337
g1282
sbsS'iw2d.config.txt'
p1708
g311
(g1574
g313
Ntp1709
Rp1710
(dp1711
g1578
g1247
sg1579
g1679
sg337
g1248
sbsS'iomanip'
p1712
g311
(g1574
g313
Ntp1713
Rp1714
(dp1715
g1578
g1586
sg1579
g1587
sg337
S'e:/program files (x86)/marmelade/7.4/s3e/h/std/c++/iomanip'
p1716
sbsS'iwgeom.mkf'
p1717
g311
(g1574
g313
Ntp1718
Rp1719
(dp1720
g1578
g1350
sg1579
g1640
sg337
g1348
sbsS'IwGxError.h'
p1721
g311
(g1574
g313
Ntp1722
Rp1723
(dp1724
g1578
g1381
sg1579
(lp1725
S"'Marmalade Studio'"
p1726
ag1377
asg337
g1392
sbsS'IwGeom.h'
p1727
g311
(g1574
g313
Ntp1728
Rp1729
(dp1730
g1578
g1281
sg1579
g1640
sg337
g1308
sbsS'IwGeomVec4.h'
p1731
g311
(g1574
g313
Ntp1732
Rp1733
(dp1734
g1578
g1281
sg1579
g1640
sg337
g1312
sbsS'dir.h'
p1735
g311
(g1574
g313
Ntp1736
Rp1737
(dp1738
g1578
g1586
sg1579
(lp1739
g1588
aS'stdc headers'
p1740
aS'sys'
p1741
asg337
S'e:/program files (x86)/marmelade/7.4/s3e/h/std/sys/dir.h'
p1742
sbsS'locale.h'
p1743
g311
(g1574
g313
Ntp1744
Rp1745
(dp1746
g1578
g1586
sg1579
g1608
sg337
S'e:/program files (x86)/marmelade/7.4/s3e/h/std/locale.h'
p1747
sbsS'vector'
p1748
g311
(g1574
g313
Ntp1749
Rp1750
(dp1751
g1578
g1586
sg1579
g1587
sg337
S'e:/program files (x86)/marmelade/7.4/s3e/h/std/c++/vector'
p1752
sbsS'IwManaged.h'
p1753
g311
(g1574
g313
Ntp1754
Rp1755
(dp1756
g1578
g1445
sg1579
g1615
sg337
g1510
sbsS's3eCompass.h'
p1757
g311
(g1574
g313
Ntp1758
Rp1759
(dp1760
g1578
g1586
sg1579
g1602
sg337
S'e:/program files (x86)/marmelade/7.4/s3e/h/s3eCompass.h'
p1761
sbsS'cderror.h'
p1762
g311
(g1574
g313
Ntp1763
Rp1764
(dp1765
g1578
g1067
sg1579
g1674
sg337
g1065
sbsS'climits'
p1766
g311
(g1574
g313
Ntp1767
Rp1768
(dp1769
g1578
g1586
sg1579
g1587
sg337
S'e:/program files (x86)/marmelade/7.4/s3e/h/std/c++/climits'
p1770
sbsS'ipc.h'
p1771
g311
(g1574
g313
Ntp1772
Rp1773
(dp1774
g1578
g1586
sg1579
g1739
sg337
S'e:/program files (x86)/marmelade/7.4/s3e/h/std/sys/ipc.h'
p1775
sbsS'jversion.h'
p1776
g311
(g1574
g313
Ntp1777
Rp1778
(dp1779
g1578
g1067
sg1579
g1674
sg337
g1068
sbsS'fnmatch.h'
p1780
g311
(g1574
g313
Ntp1781
Rp1782
(dp1783
g1578
g1586
sg1579
g1608
sg337
S'e:/program files (x86)/marmelade/7.4/s3e/h/std/fnmatch.h'
p1784
sbsS'IwGxState.h'
p1785
g311
(g1574
g313
Ntp1786
Rp1787
(dp1788
g1578
g1381
sg1579
g1725
sg337
g1390
sbsS's3eAudio.h'
p1789
g311
(g1574
g313
Ntp1790
Rp1791
(dp1792
g1578
g1586
sg1579
g1602
sg337
S'e:/program files (x86)/marmelade/7.4/s3e/h/s3eAudio.h'
p1793
sbsS's3eSurface.h'
p1794
g311
(g1574
g313
Ntp1795
Rp1796
(dp1797
g1578
g1586
sg1579
g1602
sg337
S'e:/program files (x86)/marmelade/7.4/s3e/h/s3eSurface.h'
p1798
sbsS'new'
p1799
g311
(g1574
g313
Ntp1800
Rp1801
(dp1802
g1578
g1586
sg1579
g1587
sg337
S'e:/program files (x86)/marmelade/7.4/s3e/h/std/c++/new'
p1803
sbsS's3eWindow.h'
p1804
g311
(g1574
g313
Ntp1805
Rp1806
(dp1807
g1578
g1586
sg1579
(lp1808
g1588
aS'Extensions'
p1809
asg337
S'e:/program files (x86)/marmelade/7.4/s3e/h/ext/s3eWindow.h'
p1810
sbsS'IwBuffer.h'
p1811
g311
(g1574
g313
Ntp1812
Rp1813
(dp1814
g1578
g1445
sg1579
g1615
sg337
g1450
sbsS'stdio_streambuf'
p1815
g311
(g1574
g313
Ntp1816
Rp1817
(dp1818
g1578
g1586
sg1579
g1587
sg337
S'e:/program files (x86)/marmelade/7.4/s3e/h/std/c++/stdio_streambuf'
p1819
sbsS'IwGeomQuat.h.tpl'
p1820
g311
(g1574
g313
Ntp1821
Rp1822
(dp1823
g1578
g1281
sg1579
g1640
sg337
g1294
sbsS's3eOSExec.h'
p1824
g311
(g1574
g313
Ntp1825
Rp1826
(dp1827
g1578
g1586
sg1579
g1808
sg337
S'e:/program files (x86)/marmelade/7.4/s3e/h/ext/s3eOSExec.h'
p1828
sbsS'IwGxTransformSW.h'
p1829
g311
(g1574
g313
Ntp1830
Rp1831
(dp1832
g1578
g1381
sg1579
g1725
sg337
g1384
sbsS'IwGxMetrics.h'
p1833
g311
(g1574
g313
Ntp1834
Rp1835
(dp1836
g1578
g1381
sg1579
g1725
sg337
g1402
sbsS'iwgxfont.config.txt'
p1837
g311
(g1574
g313
Ntp1838
Rp1839
(dp1840
g1578
g1259
sg1579
g1580
sg337
g1262
sbsS'gl2platform.h'
p1841
g311
(g1574
g313
Ntp1842
Rp1843
(dp1844
g1578
g1586
sg1579
(lp1845
g1588
aS'GL'
p1846
aS'GLES 2.0'
p1847
asg337
S'e:/program files (x86)/marmelade/7.4/s3e/h/GLES2/gl2platform.h'
p1848
sbsS'IwResManagerClass.h'
p1849
g311
(g1574
g313
Ntp1850
Rp1851
(dp1852
g1578
g1357
sg1579
(lp1853
g1217
ag1353
asg337
g1358
sbsS'queue'
p1854
g311
(g1574
g313
Ntp1855
Rp1856
(dp1857
g1578
g1586
sg1579
g1587
sg337
S'e:/program files (x86)/marmelade/7.4/s3e/h/std/c++/queue'
p1858
sbsS'time_1.h'
p1859
g311
(g1574
g313
Ntp1860
Rp1861
(dp1862
g1578
g1586
sg1579
g1739
sg337
S'e:/program files (x86)/marmelade/7.4/s3e/h/std/sys/time.h'
p1863
sbsS'Iw2D.h'
p1864
g311
(g1574
g313
Ntp1865
Rp1866
(dp1867
g1578
g1247
sg1579
g1679
sg337
g1250
sbsS'Input.cpp'
p1868
g311
(g1574
g313
Ntp1869
Rp1870
(dp1871
g1578
g1160
sg1579
g1690
sg337
g1169
sbsS'IwGeomVec2.h'
p1872
g311
(g1574
g313
Ntp1873
Rp1874
(dp1875
g1578
g1281
sg1579
g1640
sg337
g1284
sbsS'sendfile.h'
p1876
g311
(g1574
g313
Ntp1877
Rp1878
(dp1879
g1578
g1586
sg1579
g1739
sg337
S'e:/program files (x86)/marmelade/7.4/s3e/h/std/sys/sendfile.h'
p1880
sbsS'malloc.h'
p1881
g311
(g1574
g313
Ntp1882
Rp1883
(dp1884
g1578
g1586
sg1579
g1608
sg337
S'e:/program files (x86)/marmelade/7.4/s3e/h/std/malloc.h'
p1885
sbsS'stdarg.h'
p1886
g311
(g1574
g313
Ntp1887
Rp1888
(dp1889
g1578
g1586
sg1579
g1608
sg337
S'e:/program files (x86)/marmelade/7.4/s3e/h/std/stdarg.h'
p1890
sbsS'IwGeomCore.h'
p1891
g311
(g1574
g313
Ntp1892
Rp1893
(dp1894
g1578
g1281
sg1579
g1640
sg337
g1286
sbsS'Iw2DSceneGraph.h'
p1895
g311
(g1574
g313
Ntp1896
Rp1897
(dp1898
g1578
g1223
sg1579
(lp1899
S"'Marmalade Studio'"
p1900
ag1219
asg337
g1226
sbsS'endian.h'
p1901
g311
(g1574
g313
Ntp1902
Rp1903
(dp1904
g1578
g1586
sg1579
g1608
sg337
S'e:/program files (x86)/marmelade/7.4/s3e/h/std/endian.h'
p1905
sbsS'gl3ext.h'
p1906
g311
(g1574
g313
Ntp1907
Rp1908
(dp1909
g1578
g1586
sg1579
(lp1910
g1588
aS'GL'
p1911
aS'GLES 3.0'
p1912
asg337
S'e:/program files (x86)/marmelade/7.4/s3e/h/GLES3/gl3ext.h'
p1913
sbsS'glob.h'
p1914
g311
(g1574
g313
Ntp1915
Rp1916
(dp1917
g1578
g1586
sg1579
g1608
sg337
S'e:/program files (x86)/marmelade/7.4/s3e/h/std/glob.h'
p1918
sbsS'fstream'
p1919
g311
(g1574
g313
Ntp1920
Rp1921
(dp1922
g1578
g1586
sg1579
g1587
sg337
S'e:/program files (x86)/marmelade/7.4/s3e/h/std/c++/fstream'
p1923
sbsS's3eCamera.h'
p1924
g311
(g1574
g313
Ntp1925
Rp1926
(dp1927
g1578
g1586
sg1579
g1602
sg337
S'e:/program files (x86)/marmelade/7.4/s3e/h/s3eCamera.h'
p1928
sbsS'jconfig.h'
p1929
g311
(g1574
g313
Ntp1930
Rp1931
(dp1932
g1578
g1067
sg1579
g1674
sg337
g1084
sbsS'memory'
p1933
g311
(g1574
g313
Ntp1934
Rp1935
(dp1936
g1578
g1586
sg1579
g1587
sg337
S'e:/program files (x86)/marmelade/7.4/s3e/h/std/c++/memory'
p1937
sbsS'egl.h'
p1938
g311
(g1574
g313
Ntp1939
Rp1940
(dp1941
g1578
g1586
sg1579
(lp1942
g1588
aS'GL'
p1943
aS'EGL'
p1944
asg337
S'e:/program files (x86)/marmelade/7.4/s3e/h/EGL/egl.h'
p1945
sbsS'IwClip.inl'
p1946
g311
(g1574
g313
Ntp1947
Rp1948
(dp1949
g1578
g1381
sg1579
g1725
sg337
g1404
sbsS'IwMemManagerDL.h'
p1950
g311
(g1574
g313
Ntp1951
Rp1952
(dp1953
g1578
g1445
sg1579
g1615
sg337
g1476
sbsS'deque'
p1954
g311
(g1574
g313
Ntp1955
Rp1956
(dp1957
g1578
g1586
sg1579
g1587
sg337
S'e:/program files (x86)/marmelade/7.4/s3e/h/std/c++/deque'
p1958
sbsS'IwString.h'
p1959
g311
(g1574
g313
Ntp1960
Rp1961
(dp1962
g1578
g1445
sg1579
g1615
sg337
g1478
sbsS'cwchar'
p1963
g311
(g1574
g313
Ntp1964
Rp1965
(dp1966
g1578
g1586
sg1579
g1587
sg337
S'e:/program files (x86)/marmelade/7.4/s3e/h/std/c++/cwchar'
p1967
sbsS'iwutil.mkf'
p1968
g311
(g1574
g313
Ntp1969
Rp1970
(dp1971
g1578
g1522
sg1579
g1615
sg337
g1520
sbsS'csignal'
p1972
g311
(g1574
g313
Ntp1973
Rp1974
(dp1975
g1578
g1586
sg1579
g1587
sg337
S'e:/program files (x86)/marmelade/7.4/s3e/h/std/c++/csignal'
p1976
sbsS'pthread_types.h'
p1977
g311
(g1574
g313
Ntp1978
Rp1979
(dp1980
g1578
g1586
sg1579
g1608
sg337
S'e:/program files (x86)/marmelade/7.4/s3e/h/std/pthread_types.h'
p1981
sbsS'MainMenu.h'
p1982
g311
(g1574
g313
Ntp1983
Rp1984
(dp1985
g1578
g1160
sg1579
g1690
sg337
g1177
sbsS'pthread_alloc'
p1986
g311
(g1574
g313
Ntp1987
Rp1988
(dp1989
g1578
g1586
sg1579
g1587
sg337
S'e:/program files (x86)/marmelade/7.4/s3e/h/std/c++/pthread_alloc'
p1990
sbsS'getopt.h'
p1991
g311
(g1574
g313
Ntp1992
Rp1993
(dp1994
g1578
g1586
sg1579
g1608
sg337
S'e:/program files (x86)/marmelade/7.4/s3e/h/std/getopt.h'
p1995
sbsS'IwOptimiseARM.h'
p1996
g311
(g1574
g313
Ntp1997
Rp1998
(dp1999
g1578
g1445
sg1579
g1615
sg337
g1492
sbsS'times.h'
p2000
g311
(g1574
g313
Ntp2001
Rp2002
(dp2003
g1578
g1586
sg1579
g1739
sg337
S'e:/program files (x86)/marmelade/7.4/s3e/h/std/sys/times.h'
p2004
sbsS'IwGeomFSphere.h'
p2005
g311
(g1574
g313
Ntp2006
Rp2007
(dp2008
g1578
g1281
sg1579
g1640
sg337
g1306
sbsS'IwTypes.h'
p2009
g311
(g1574
g313
Ntp2010
Rp2011
(dp2012
g1578
g1445
sg1579
g1615
sg337
g1523
sbsS'unistd.h'
p2013
g311
(g1574
g313
Ntp2014
Rp2015
(dp2016
g1578
g1586
sg1579
g1608
sg337
S'e:/program files (x86)/marmelade/7.4/s3e/h/std/unistd.h'
p2017
sbsS'Input.h'
p2018
g311
(g1574
g313
Ntp2019
Rp2020
(dp2021
g1578
g1160
sg1579
g1690
sg337
g1183
sbsS's3eCompression.h'
p2022
g311
(g1574
g313
Ntp2023
Rp2024
(dp2025
g1578
g1586
sg1579
g1602
sg337
S'e:/program files (x86)/marmelade/7.4/s3e/h/s3eCompression.h'
p2026
sbsS'langinfo.h'
p2027
g311
(g1574
g313
Ntp2028
Rp2029
(dp2030
g1578
g1586
sg1579
g1608
sg337
S'e:/program files (x86)/marmelade/7.4/s3e/h/std/langinfo.h'
p2031
sbsS's3edebugHeap.h'
p2032
g311
(g1574
g313
Ntp2033
Rp2034
(dp2035
g1578
g1586
sg1579
g1808
sg337
S'e:/program files (x86)/marmelade/7.4/s3e/h/ext/s3edebugHeap.h'
p2036
sbsS'AirplayVersion.h'
p2037
g311
(g1574
g313
Ntp2038
Rp2039
(dp2040
g1578
g1586
sg1579
g1602
sg337
S'e:/program files (x86)/marmelade/7.4/s3e/h/AirplayVersion.h'
p2041
sbsS'gl2extimg.h'
p2042
g311
(g1574
g313
Ntp2043
Rp2044
(dp2045
g1578
g1586
sg1579
g1845
sg337
S'e:/program files (x86)/marmelade/7.4/s3e/h/GLES2/gl2extimg.h'
p2046
sbsS'Button.h'
p2047
g311
(g1574
g313
Ntp2048
Rp2049
(dp2050
g1578
g1160
sg1579
g1690
sg337
g1161
sbsS'app.config.txt'
p2051
g311
(g1574
g313
Ntp2052
Rp2053
(dp2054
g1578
(dp2055
sg1579
g4
sg337
S'e:/Documents/GitHub/Mastermind-Remake/Mastermind/data/app.config.txt'
p2056
sbsS'IwGeomSqrt.h'
p2057
g311
(g1574
g313
Ntp2058
Rp2059
(dp2060
g1578
g1281
sg1579
g1640
sg337
g1346
sbsS'tiniconv_int.h'
p2061
g311
(g1574
g313
Ntp2062
Rp2063
(dp2064
g1578
g1101
sg1579
(lp2065
g1094
asg337
g1099
sbsS'syslog.h'
p2066
g311
(g1574
g313
Ntp2067
Rp2068
(dp2069
g1578
g1586
sg1579
g1608
sg337
S'e:/program files (x86)/marmelade/7.4/s3e/h/std/syslog.h'
p2070
sbsS'IwGxFontTypes.h'
p2071
g311
(g1574
g313
Ntp2072
Rp2073
(dp2074
g1578
g1259
sg1579
g1580
sg337
g1260
sbsS'IwGeomFIntersect.h'
p2075
g311
(g1574
g313
Ntp2076
Rp2077
(dp2078
g1578
g1281
sg1579
g1640
sg337
g1292
sbsS'hash_map'
p2079
g311
(g1574
g313
Ntp2080
Rp2081
(dp2082
g1578
g1586
sg1579
g1587
sg337
S'e:/program files (x86)/marmelade/7.4/s3e/h/std/c++/hash_map'
p2083
sbsS's3e.mkf'
p2084
g311
(g1574
g313
Ntp2085
Rp2086
(dp2087
g1578
(dp2088
sg1579
g1602
sg337
S'e:/program files (x86)/marmelade/7.4/s3e/s3e.mkf'
p2089
sbsS'IwGeomMat2D.h.tpl'
p2090
g311
(g1574
g313
Ntp2091
Rp2092
(dp2093
g1578
g1281
sg1579
g1640
sg337
g1344
sbsS's3eOSReadString.h'
p2094
g311
(g1574
g313
Ntp2095
Rp2096
(dp2097
g1578
g1586
sg1579
g1808
sg337
S'e:/program files (x86)/marmelade/7.4/s3e/h/ext/s3eOSReadString.h'
p2098
sbsS'IwSound.h'
p2099
g311
(g1574
g313
Ntp2100
Rp2101
(dp2102
g1578
g1108
sg1579
g1626
sg337
g1106
sbsS'map'
p2103
g311
(g1574
g313
Ntp2104
Rp2105
(dp2106
g1578
g1586
sg1579
g1587
sg337
S'e:/program files (x86)/marmelade/7.4/s3e/h/std/c++/map'
p2107
sbsS'iwtween.mkf'
p2108
g311
(g1574
g313
Ntp2109
Rp2110
(dp2111
g1578
g1565
sg1579
(lp2112
g1556
asg337
g1563
sbsS'IwOptimiseSpeed.h'
p2113
g311
(g1574
g313
Ntp2114
Rp2115
(dp2116
g1578
g1445
sg1579
g1615
sg337
g1506
sbsS'ostream'
p2117
g311
(g1574
g313
Ntp2118
Rp2119
(dp2120
g1578
g1586
sg1579
g1587
sg337
S'e:/program files (x86)/marmelade/7.4/s3e/h/std/c++/ostream'
p2121
sbsS'msl_string.h'
p2122
g311
(g1574
g313
Ntp2123
Rp2124
(dp2125
g1578
g1586
sg1579
g1587
sg337
S'e:/program files (x86)/marmelade/7.4/s3e/h/std/c++/msl_string.h'
p2126
sbsS'select.h'
p2127
g311
(g1574
g313
Ntp2128
Rp2129
(dp2130
g1578
g1586
sg1579
g1739
sg337
S'e:/program files (x86)/marmelade/7.4/s3e/h/std/sys/select.h'
p2131
sbsS'zlib.mkf'
p2132
g311
(g1574
g313
Ntp2133
Rp2134
(dp2135
g1578
g1555
sg1579
(lp2136
g1545
asg337
g1553
sbsS'signal.h'
p2137
g311
(g1574
g313
Ntp2138
Rp2139
(dp2140
g1578
g1586
sg1579
g1608
sg337
S'e:/program files (x86)/marmelade/7.4/s3e/h/std/signal.h'
p2141
sbsS'sigcontext.h'
p2142
g311
(g1574
g313
Ntp2143
Rp2144
(dp2145
g1578
g1586
sg1579
g1608
sg337
S'e:/program files (x86)/marmelade/7.4/s3e/h/std/sigcontext.h'
p2146
sbsS'libpng.mkf'
p2147
g311
(g1574
g313
Ntp2148
Rp2149
(dp2150
g1578
g1058
sg1579
(lp2151
g1047
asg337
g1056
sbsS's3eClipboard.h'
p2152
g311
(g1574
g313
Ntp2153
Rp2154
(dp2155
g1578
g1586
sg1579
g1602
sg337
S'e:/program files (x86)/marmelade/7.4/s3e/h/s3eClipboard.h'
p2156
sbsS'IwGxFuncTable.h'
p2157
g311
(g1574
g313
Ntp2158
Rp2159
(dp2160
g1578
g1381
sg1579
g1725
sg337
g1421
sbsS'IwResHandlerGROUP.h'
p2161
g311
(g1574
g313
Ntp2162
Rp2163
(dp2164
g1578
g1357
sg1579
g1853
sg337
g1360
sbsS's3eDebug.h'
p2165
g311
(g1574
g313
Ntp2166
Rp2167
(dp2168
g1578
g1586
sg1579
g1602
sg337
S'e:/program files (x86)/marmelade/7.4/s3e/h/s3eDebug.h'
p2169
sbsS'socket.h'
p2170
g311
(g1574
g313
Ntp2171
Rp2172
(dp2173
g1578
g1586
sg1579
g1739
sg337
S'e:/program files (x86)/marmelade/7.4/s3e/h/std/sys/socket.h'
p2174
sbsS'glext.h'
p2175
g311
(g1574
g313
Ntp2176
Rp2177
(dp2178
g1578
g1586
sg1579
(lp2179
g1588
aS'GL'
p2180
aS'GLES 1.x'
p2181
asg337
S'e:/program files (x86)/marmelade/7.4/s3e/h/GLES/glext.h'
p2182
sbsS'typeinfo.h'
p2183
g311
(g1574
g313
Ntp2184
Rp2185
(dp2186
g1578
g1586
sg1579
g1587
sg337
S'e:/program files (x86)/marmelade/7.4/s3e/h/std/c++/typeinfo.h'
p2187
sbsS'typeinfo'
p2188
g311
(g1574
g313
Ntp2189
Rp2190
(dp2191
g1578
g1586
sg1579
g1587
sg337
S'e:/program files (x86)/marmelade/7.4/s3e/h/std/c++/typeinfo'
p2192
sbsS'iwsound.config.txt'
p2193
g311
(g1574
g313
Ntp2194
Rp2195
(dp2196
g1578
g1108
sg1579
(lp2197
g1104
ag1124
asg337
g1126
sbsS'fstream.h'
p2198
g311
(g1574
g313
Ntp2199
Rp2200
(dp2201
g1578
g1586
sg1579
g1587
sg337
S'e:/program files (x86)/marmelade/7.4/s3e/h/std/c++/fstream.h'
p2202
sbsS's3ePointer.h'
p2203
g311
(g1574
g313
Ntp2204
Rp2205
(dp2206
g1578
g1586
sg1579
g1602
sg337
S'e:/program files (x86)/marmelade/7.4/s3e/h/s3ePointer.h'
p2207
sbsS'IwMemBucket.h'
p2208
g311
(g1574
g313
Ntp2209
Rp2210
(dp2211
g1578
g1445
sg1579
g1615
sg337
g1448
sbsS'PVRTexTool.h'
p2212
g311
(g1574
g313
Ntp2213
Rp2214
(dp2215
g1578
g1209
sg1579
(lp2216
g1201
ag1203
asg337
g1212
sbsS's3eGL.h'
p2217
g311
(g1574
g313
Ntp2218
Rp2219
(dp2220
g1578
g1586
sg1579
g1602
sg337
S'e:/program files (x86)/marmelade/7.4/s3e/h/s3eGL.h'
p2221
sbsS'Scene.h'
p2222
g311
(g1574
g313
Ntp2223
Rp2224
(dp2225
g1578
g1160
sg1579
g1690
sg337
g1195
sbsS'IwGeomFVec2.h'
p2226
g311
(g1574
g313
Ntp2227
Rp2228
(dp2229
g1578
g1281
sg1579
g1640
sg337
g1316
sbsS'IwGeomSVec4.h'
p2230
g311
(g1574
g313
Ntp2231
Rp2232
(dp2233
g1578
g1281
sg1579
g1640
sg337
g1296
sbsS'poll.h'
p2234
g311
(g1574
g313
Ntp2235
Rp2236
(dp2237
g1578
g1586
sg1579
g1608
sg337
S'e:/program files (x86)/marmelade/7.4/s3e/h/std/poll.h'
p2238
sbsS'IwMatAnim.h'
p2239
g311
(g1574
g313
Ntp2240
Rp2241
(dp2242
g1578
g1381
sg1579
g1725
sg337
g1410
sbsS'IwGeomFVec4.h'
p2243
g311
(g1574
g313
Ntp2244
Rp2245
(dp2246
g1578
g1281
sg1579
g1640
sg337
g1322
sbsS'IwGx.h'
p2247
g311
(g1574
g313
Ntp2248
Rp2249
(dp2250
g1578
g1381
sg1579
g1725
sg337
g1429
sbsS'valarray'
p2251
g311
(g1574
g313
Ntp2252
Rp2253
(dp2254
g1578
g1586
sg1579
g1587
sg337
S'e:/program files (x86)/marmelade/7.4/s3e/h/std/c++/valarray'
p2255
sbsS'iosfwd'
p2256
g311
(g1574
g313
Ntp2257
Rp2258
(dp2259
g1578
g1586
sg1579
g1587
sg337
S'e:/program files (x86)/marmelade/7.4/s3e/h/std/c++/iosfwd'
p2260
sbsS'gl2.h'
p2261
g311
(g1574
g313
Ntp2262
Rp2263
(dp2264
g1578
g1586
sg1579
g1845
sg337
S'e:/program files (x86)/marmelade/7.4/s3e/h/GLES2/gl2.h'
p2265
sbsS'jpegint.h'
p2266
g311
(g1574
g313
Ntp2267
Rp2268
(dp2269
g1578
g1067
sg1579
g1674
sg337
g1078
sbsS'stdiostream.h'
p2270
g311
(g1574
g313
Ntp2271
Rp2272
(dp2273
g1578
g1586
sg1579
g1587
sg337
S'e:/program files (x86)/marmelade/7.4/s3e/h/std/c++/stdiostream.h'
p2274
sbsS'mem.h'
p2275
g311
(g1574
g313
Ntp2276
Rp2277
(dp2278
g1578
g1586
sg1579
g1587
sg337
S'e:/program files (x86)/marmelade/7.4/s3e/h/std/c++/mem.h'
p2279
sbsS'jerror.h'
p2280
g311
(g1574
g313
Ntp2281
Rp2282
(dp2283
g1578
g1067
sg1579
g1674
sg337
g1090
sbsS'zconf.h'
p2284
g311
(g1574
g313
Ntp2285
Rp2286
(dp2287
g1578
g1550
sg1579
(lp2288
g1545
ag1049
asg337
g1548
sbsS's3e.config.txt'
p2289
g311
(g1574
g313
Ntp2290
Rp2291
(dp2292
g1578
g1586
sg1579
g1602
sg337
S'e:/program files (x86)/marmelade/7.4/s3e/s3e.config.txt'
p2293
sbsS'numeric'
p2294
g311
(g1574
g313
Ntp2295
Rp2296
(dp2297
g1578
g1586
sg1579
g1587
sg337
S'e:/program files (x86)/marmelade/7.4/s3e/h/std/c++/numeric'
p2298
sbsS'PauseMenu.cpp'
p2299
g311
(g1574
g313
Ntp2300
Rp2301
(dp2302
g1578
g1160
sg1579
g1690
sg337
g1191
sbsS'ioctl.h'
p2303
g311
(g1574
g313
Ntp2304
Rp2305
(dp2306
g1578
g1586
sg1579
g1739
sg337
S'e:/program files (x86)/marmelade/7.4/s3e/h/std/sys/ioctl.h'
p2307
sbsS'jdhuff.h'
p2308
g311
(g1574
g313
Ntp2309
Rp2310
(dp2311
g1578
g1067
sg1579
g1674
sg337
g1086
sbsS'IwResHandlerWAV.cpp'
p2312
g311
(g1574
g313
Ntp2313
Rp2314
(dp2315
g1578
g1108
sg1579
g1626
sg337
g1150
sbsS'un.h'
p2316
g311
(g1574
g313
Ntp2317
Rp2318
(dp2319
g1578
g1586
sg1579
g1739
sg337
S'e:/program files (x86)/marmelade/7.4/s3e/h/std/sys/un.h'
p2320
sbsS'IwImage.h'
p2321
g311
(g1574
g313
Ntp2322
Rp2323
(dp2324
g1578
g1445
sg1579
g1615
sg337
g1456
sbsS's3eImagePicker.h'
p2325
g311
(g1574
g313
Ntp2326
Rp2327
(dp2328
g1578
g1586
sg1579
g1808
sg337
S'e:/program files (x86)/marmelade/7.4/s3e/h/ext/s3eImagePicker.h'
p2329
sbsS'IwResManager.h'
p2330
g311
(g1574
g313
Ntp2331
Rp2332
(dp2333
g1578
g1357
sg1579
g1853
sg337
g1367
sbsS'stdlib.h'
p2334
g311
(g1574
g313
Ntp2335
Rp2336
(dp2337
g1578
g1586
sg1579
g1608
sg337
S'e:/program files (x86)/marmelade/7.4/s3e/h/std/stdlib.h'
p2338
sbsS'IwCopyingPtr.h'
p2339
g311
(g1574
g313
Ntp2340
Rp2341
(dp2342
g1578
g1445
sg1579
g1615
sg337
g1500
sbsS'iostream'
p2343
g311
(g1574
g313
Ntp2344
Rp2345
(dp2346
g1578
g1586
sg1579
g1587
sg337
S'e:/program files (x86)/marmelade/7.4/s3e/h/std/c++/iostream'
p2347
sbsS'png.h'
p2348
g311
(g1574
g313
Ntp2349
Rp2350
(dp2351
g1578
g1053
sg1579
(lp2352
g1047
ag1049
asg337
g1051
sbsS'stddef.h'
p2353
g311
(g1574
g313
Ntp2354
Rp2355
(dp2356
g1578
g1586
sg1579
g1608
sg337
S'e:/program files (x86)/marmelade/7.4/s3e/h/std/stddef.h'
p2357
sbsS'setjmp_win32.h'
p2358
g311
(g1574
g313
Ntp2359
Rp2360
(dp2361
g1578
g1586
sg1579
g1608
sg337
S'e:/program files (x86)/marmelade/7.4/s3e/h/std/setjmp_win32.h'
p2362
sbsS'IwGxPrint.h'
p2363
g311
(g1574
g313
Ntp2364
Rp2365
(dp2366
g1578
g1381
sg1579
g1725
sg337
g1419
sbsS'IwClassFactory.h'
p2367
g311
(g1574
g313
Ntp2368
Rp2369
(dp2370
g1578
g1445
sg1579
g1615
sg337
g1446
sbsS'streambuf.h'
p2371
g311
(g1574
g313
Ntp2372
Rp2373
(dp2374
g1578
g1586
sg1579
g1587
sg337
S'e:/program files (x86)/marmelade/7.4/s3e/h/std/c++/streambuf.h'
p2375
sbsS'IwGeomFPlane.h'
p2376
g311
(g1574
g313
Ntp2377
Rp2378
(dp2379
g1578
g1281
sg1579
g1640
sg337
g1290
sbsS'wchar.h'
p2380
g311
(g1574
g313
Ntp2381
Rp2382
(dp2383
g1578
g1586
sg1579
g1608
sg337
S'e:/program files (x86)/marmelade/7.4/s3e/h/std/wchar.h'
p2384
sbsS's3eCameraCapture.h'
p2385
g311
(g1574
g313
Ntp2386
Rp2387
(dp2388
g1578
g1586
sg1579
g1808
sg337
S'e:/program files (x86)/marmelade/7.4/s3e/h/ext/s3eCameraCapture.h'
p2389
sbsS'eglext.h'
p2390
g311
(g1574
g313
Ntp2391
Rp2392
(dp2393
g1578
g1586
sg1579
g1942
sg337
S'e:/program files (x86)/marmelade/7.4/s3e/h/EGL/eglext.h'
p2394
sbsS'IwResHandlerImage.h'
p2395
g311
(g1574
g313
Ntp2396
Rp2397
(dp2398
g1578
g1357
sg1579
g1853
sg337
g1355
sbsS'strstream.h'
p2399
g311
(g1574
g313
Ntp2400
Rp2401
(dp2402
g1578
g1586
sg1579
g1587
sg337
S'e:/program files (x86)/marmelade/7.4/s3e/h/std/c++/strstream.h'
p2403
sbsS'tiniconv.h'
p2404
g311
(g1574
g313
Ntp2405
Rp2406
(dp2407
g1578
g1101
sg1579
g2065
sg337
g1102
sbsS'IwGLExt.h'
p2408
g311
(g1574
g313
Ntp2409
Rp2410
(dp2411
g1578
g1238
sg1579
g1596
sg337
g1241
sbsS'app.icf'
p2412
g311
(g1574
g313
Ntp2413
Rp2414
(dp2415
g1578
(dp2416
sg1579
g4
sg337
S'e:/Documents/GitHub/Mastermind-Remake/Mastermind/data/app.icf'
p2417
sbsS'iwgx_public.defines.txt'
p2418
g311
(g1574
g313
Ntp2419
Rp2420
(dp2421
g1578
g1381
sg1579
g1725
sg337
g1423
sbsS'file.h'
p2422
g311
(g1574
g313
Ntp2423
Rp2424
(dp2425
g1578
g1586
sg1579
g1739
sg337
S'e:/program files (x86)/marmelade/7.4/s3e/h/std/sys/file.h'
p2426
sbsS'cstring'
p2427
g311
(g1574
g313
Ntp2428
Rp2429
(dp2430
g1578
g1586
sg1579
g1587
sg337
S'e:/program files (x86)/marmelade/7.4/s3e/h/std/c++/cstring'
p2431
sbsS'IwSoundInst.cpp'
p2432
g311
(g1574
g313
Ntp2433
Rp2434
(dp2435
g1578
g1108
sg1579
g1626
sg337
g1142
sbsS'Resource.h'
p2436
g311
(g1574
g313
Ntp2437
Rp2438
(dp2439
g1578
g1160
sg1579
g1690
sg337
g1199
sbsS'iwutil.config.txt'
p2440
g311
(g1574
g313
Ntp2441
Rp2442
(dp2443
g1578
g1445
sg1579
g1615
sg337
g1504
sbsS's3eSMS.h'
p2444
g311
(g1574
g313
Ntp2445
Rp2446
(dp2447
g1578
g1586
sg1579
g1808
sg337
S'e:/program files (x86)/marmelade/7.4/s3e/h/ext/s3eSMS.h'
p2448
sbsS'limits.h'
p2449
g311
(g1574
g313
Ntp2450
Rp2451
(dp2452
g1578
g1586
sg1579
g1608
sg337
S'e:/program files (x86)/marmelade/7.4/s3e/h/std/limits.h'
p2453
sbsS'iwgl.config.txt'
p2454
g311
(g1574
g313
Ntp2455
Rp2456
(dp2457
g1578
g1238
sg1579
g1596
sg337
g1239
sbsS'IwMaterial.h'
p2458
g311
(g1574
g313
Ntp2459
Rp2460
(dp2461
g1578
g1381
sg1579
g1725
sg337
g1425
sbsS'PVRTexTool_interface.cpp'
p2462
g311
(g1574
g313
Ntp2463
Rp2464
(dp2465
g1578
g1209
sg1579
(lp2466
g1201
ag1203
ag1205
asg337
g1210
sbsS'IwGxSurface.h'
p2467
g311
(g1574
g313
Ntp2468
Rp2469
(dp2470
g1578
g1381
sg1579
g1725
sg337
g1412
sbsS's3eSocket.h'
p2471
g311
(g1574
g313
Ntp2472
Rp2473
(dp2474
g1578
g1586
sg1579
g1602
sg337
S'e:/program files (x86)/marmelade/7.4/s3e/h/s3eSocket.h'
p2475
sbsS'IwAutoFile.h'
p2476
g311
(g1574
g313
Ntp2477
Rp2478
(dp2479
g1578
g1445
sg1579
g1615
sg337
g1512
sbsS's3eVibra.h'
p2480
g311
(g1574
g313
Ntp2481
Rp2482
(dp2483
g1578
g1586
sg1579
g1602
sg337
S'e:/program files (x86)/marmelade/7.4/s3e/h/s3eVibra.h'
p2484
sbsS'poll_1.h'
p2485
g311
(g1574
g313
Ntp2486
Rp2487
(dp2488
g1578
g1586
sg1579
g1739
sg337
S'e:/program files (x86)/marmelade/7.4/s3e/h/std/sys/poll.h'
p2489
sbsS's3eThread.h'
p2490
g311
(g1574
g313
Ntp2491
Rp2492
(dp2493
g1578
g1586
sg1579
g1602
sg337
S'e:/program files (x86)/marmelade/7.4/s3e/h/s3eThread.h'
p2494
sbsS'ucontext.h'
p2495
g311
(g1574
g313
Ntp2496
Rp2497
(dp2498
g1578
g1586
sg1579
g1608
sg337
S'e:/program files (x86)/marmelade/7.4/s3e/h/std/ucontext.h'
p2499
sbsS'time.h'
p2500
g311
(g1574
g313
Ntp2501
Rp2502
(dp2503
g1578
g1586
sg1579
g1608
sg337
S'e:/program files (x86)/marmelade/7.4/s3e/h/std/time.h'
p2504
sbsS'jchuff.h'
p2505
g311
(g1574
g313
Ntp2506
Rp2507
(dp2508
g1578
g1067
sg1579
g1674
sg337
g1080
sbsS'IwSoundPCM.cpp'
p2509
g311
(g1574
g313
Ntp2510
Rp2511
(dp2512
g1578
g1108
sg1579
g1626
sg337
g1136
sbsS's3eSoundRecord.h'
p2513
g311
(g1574
g313
Ntp2514
Rp2515
(dp2516
g1578
g1586
sg1579
g1602
sg337
S'e:/program files (x86)/marmelade/7.4/s3e/h/s3eSoundRecord.h'
p2517
sbsS'IwFibre.h'
p2518
g311
(g1574
g313
Ntp2519
Rp2520
(dp2521
g1578
g1445
sg1579
g1615
sg337
g1496
sbsS's3eVersion.h'
p2522
g311
(g1574
g313
Ntp2523
Rp2524
(dp2525
g1578
g1586
sg1579
g1602
sg337
S'e:/program files (x86)/marmelade/7.4/s3e/h/s3eVersion.h'
p2526
sbsS'IwSoundGroup.h'
p2527
g311
(g1574
g313
Ntp2528
Rp2529
(dp2530
g1578
g1108
sg1579
g1626
sg337
g1152
sbsS'IwSoundWAV.h'
p2531
g311
(g1574
g313
Ntp2532
Rp2533
(dp2534
g1578
g1108
sg1579
g1626
sg337
g1154
sbsS'IwGxFontGlyph.h'
p2535
g311
(g1574
g313
Ntp2536
Rp2537
(dp2538
g1578
g1259
sg1579
g1580
sg337
g1266
sbsS's3eTypes.h'
p2539
g311
(g1574
g313
Ntp2540
Rp2541
(dp2542
g1578
g1586
sg1579
g1602
sg337
S'e:/program files (x86)/marmelade/7.4/s3e/h/s3eTypes.h'
p2543
sbsS'IwSoundSpec.h'
p2544
g311
(g1574
g313
Ntp2545
Rp2546
(dp2547
g1578
g1108
sg1579
g1626
sg337
g1148
sbsS'signal_2.h'
p2548
g311
(g1574
g313
Ntp2549
Rp2550
(dp2551
g1578
g1586
sg1579
g1587
sg337
S'e:/program files (x86)/marmelade/7.4/s3e/h/std/c++/signal.h'
p2552
sbsS'termios.h'
p2553
g311
(g1574
g313
Ntp2554
Rp2555
(dp2556
g1578
g1586
sg1579
g1608
sg337
S'e:/program files (x86)/marmelade/7.4/s3e/h/std/termios.h'
p2557
sbsS'iw2dscenegraph.mkf'
p2558
g311
(g1574
g313
Ntp2559
Rp2560
(dp2561
g1578
g1230
sg1579
g1899
sg337
g1228
sbsS'slist'
p2562
g311
(g1574
g313
Ntp2563
Rp2564
(dp2565
g1578
g1586
sg1579
g1587
sg337
S'e:/program files (x86)/marmelade/7.4/s3e/h/std/c++/slist'
p2566
sbsS'cstdlib'
p2567
g311
(g1574
g313
Ntp2568
Rp2569
(dp2570
g1578
g1586
sg1579
g1587
sg337
S'e:/program files (x86)/marmelade/7.4/s3e/h/std/c++/cstdlib'
p2571
sbsS's3eLocation.h'
p2572
g311
(g1574
g313
Ntp2573
Rp2574
(dp2575
g1578
g1586
sg1579
g1602
sg337
S'e:/program files (x86)/marmelade/7.4/s3e/h/s3eLocation.h'
p2576
sbsS'IwMemBucketHelpers.h'
p2577
g311
(g1574
g313
Ntp2578
Rp2579
(dp2580
g1578
g1445
sg1579
g1615
sg337
g1543
sbsS's3eHash.h'
p2581
g311
(g1574
g313
Ntp2582
Rp2583
(dp2584
g1578
g1586
sg1579
g1602
sg337
S'e:/program files (x86)/marmelade/7.4/s3e/h/s3eHash.h'
p2585
sbsS'IwSoundGroup.cpp'
p2586
g311
(g1574
g313
Ntp2587
Rp2588
(dp2589
g1578
g1108
sg1579
g1626
sg337
g1146
sbsS'IwGeomFMat.h'
p2590
g311
(g1574
g313
Ntp2591
Rp2592
(dp2593
g1578
g1281
sg1579
g1640
sg337
g1320
sbsS'type_traits.h'
p2594
g311
(g1574
g313
Ntp2595
Rp2596
(dp2597
g1578
g1586
sg1579
g1587
sg337
S'e:/program files (x86)/marmelade/7.4/s3e/h/std/c++/type_traits.h'
p2598
sbsS'IwMenu.h'
p2599
g311
(g1574
g313
Ntp2600
Rp2601
(dp2602
g1578
g1445
sg1579
g1615
sg337
g1452
sbsS'IwResHandlerITX.h'
p2603
g311
(g1574
g313
Ntp2604
Rp2605
(dp2606
g1578
g1357
sg1579
g1853
sg337
g1365
sbsS'IwSoundData.h'
p2607
g311
(g1574
g313
Ntp2608
Rp2609
(dp2610
g1578
g1108
sg1579
g1626
sg337
g1140
sbsS'IwArray.h'
p2611
g311
(g1574
g313
Ntp2612
Rp2613
(dp2614
g1578
g1445
sg1579
g1615
sg337
g1454
sbsS'IwUTF8.h'
p2615
g311
(g1574
g313
Ntp2616
Rp2617
(dp2618
g1578
g1445
sg1579
g1615
sg337
g1458
sbsS'math_rvct.h'
p2619
g311
(g1574
g313
Ntp2620
Rp2621
(dp2622
g1578
g1586
sg1579
g1608
sg337
S'e:/program files (x86)/marmelade/7.4/s3e/h/std/math_rvct.h'
p2623
sbsS'IwUtil.h'
p2624
g311
(g1574
g313
Ntp2625
Rp2626
(dp2627
g1578
g1445
sg1579
g1615
sg337
g1502
sbsS'IwFColour.h'
p2628
g311
(g1574
g313
Ntp2629
Rp2630
(dp2631
g1578
g1381
sg1579
g1725
sg337
g1386
sbsS'wctype.h'
p2632
g311
(g1574
g313
Ntp2633
Rp2634
(dp2635
g1578
g1586
sg1579
g1608
sg337
S'e:/program files (x86)/marmelade/7.4/s3e/h/std/wctype.h'
p2636
sbsS'cstddef'
p2637
g311
(g1574
g313
Ntp2638
Rp2639
(dp2640
g1578
g1586
sg1579
g1587
sg337
S'e:/program files (x86)/marmelade/7.4/s3e/h/std/c++/cstddef'
p2641
sbsS'assert.h'
p2642
g311
(g1574
g313
Ntp2643
Rp2644
(dp2645
g1578
g1586
sg1579
g1608
sg337
S'e:/program files (x86)/marmelade/7.4/s3e/h/std/assert.h'
p2646
sbsS'mman.h'
p2647
g311
(g1574
g313
Ntp2648
Rp2649
(dp2650
g1578
g1586
sg1579
g1739
sg337
S'e:/program files (x86)/marmelade/7.4/s3e/h/std/sys/mman.h'
p2651
sbsS'IwRandom.h'
p2652
g311
(g1574
g313
Ntp2653
Rp2654
(dp2655
g1578
g1445
sg1579
g1615
sg337
g1527
sbsS'libgen.h'
p2656
g311
(g1574
g313
Ntp2657
Rp2658
(dp2659
g1578
g1586
sg1579
g1608
sg337
S'e:/program files (x86)/marmelade/7.4/s3e/h/std/libgen.h'
p2660
sbsS'utsname.h'
p2661
g311
(g1574
g313
Ntp2662
Rp2663
(dp2664
g1578
g1586
sg1579
g1739
sg337
S'e:/program files (x86)/marmelade/7.4/s3e/h/std/sys/utsname.h'
p2665
sbsS'wait.h'
p2666
g311
(g1574
g313
Ntp2667
Rp2668
(dp2669
g1578
g1586
sg1579
g1739
sg337
S'e:/program files (x86)/marmelade/7.4/s3e/h/std/sys/wait.h'
p2670
sbsS'param.h'
p2671
g311
(g1574
g313
Ntp2672
Rp2673
(dp2674
g1578
g1586
sg1579
g1739
sg337
S'e:/program files (x86)/marmelade/7.4/s3e/h/std/sys/param.h'
p2675
sbsS'IwDivide.h'
p2676
g311
(g1574
g313
Ntp2677
Rp2678
(dp2679
g1578
g1445
sg1579
g1615
sg337
g1484
sbsS'Iw2DSceneGraphCore.cpp'
p2680
g311
(g1574
g313
Ntp2681
Rp2682
(dp2683
g1578
g1438
sg1579
(lp2684
S"'Marmalade Studio'"
p2685
ag1431
asg337
g1439
sbsS'Rect.cpp'
p2686
g311
(g1574
g313
Ntp2687
Rp2688
(dp2689
g1578
g1160
sg1579
g1690
sg337
g1181
sbsS'IwSoundManager.h'
p2690
g311
(g1574
g313
Ntp2691
Rp2692
(dp2693
g1578
g1108
sg1579
g1626
sg337
g1132
sbsS'cwctype'
p2694
g311
(g1574
g313
Ntp2695
Rp2696
(dp2697
g1578
g1586
sg1579
g1587
sg337
S'e:/program files (x86)/marmelade/7.4/s3e/h/std/c++/cwctype'
p2698
sbsS'set'
p2699
g311
(g1574
g313
Ntp2700
Rp2701
(dp2702
g1578
g1586
sg1579
g1587
sg337
S'e:/program files (x86)/marmelade/7.4/s3e/h/std/c++/set'
p2703
sbsS'IwGeomSQuat.h'
p2704
g311
(g1574
g313
Ntp2705
Rp2706
(dp2707
g1578
g1281
sg1579
g1640
sg337
g1351
sbsS'locale'
p2708
g311
(g1574
g313
Ntp2709
Rp2710
(dp2711
g1578
g1586
sg1579
g1587
sg337
S'e:/program files (x86)/marmelade/7.4/s3e/h/std/c++/locale'
p2712
sbsS'cstdio'
p2713
g311
(g1574
g313
Ntp2714
Rp2715
(dp2716
g1578
g1586
sg1579
g1587
sg337
S'e:/program files (x86)/marmelade/7.4/s3e/h/std/c++/cstdio'
p2717
sbsS'cdjpeg.h'
p2718
g311
(g1574
g313
Ntp2719
Rp2720
(dp2721
g1578
g1067
sg1579
g1674
sg337
g1074
sbsS'IwList.h'
p2722
g311
(g1574
g313
Ntp2723
Rp2724
(dp2725
g1578
g1445
sg1579
g1615
sg337
g1490
sbsS'inttypes.h'
p2726
g311
(g1574
g313
Ntp2727
Rp2728
(dp2729
g1578
g1586
sg1579
g1608
sg337
S'e:/program files (x86)/marmelade/7.4/s3e/h/std/inttypes.h'
p2730
sbsS'dirent.h'
p2731
g311
(g1574
g313
Ntp2732
Rp2733
(dp2734
g1578
g1586
sg1579
g1608
sg337
S'e:/program files (x86)/marmelade/7.4/s3e/h/std/dirent.h'
p2735
sbsS'IwGeomVec3.h'
p2736
g311
(g1574
g313
Ntp2737
Rp2738
(dp2739
g1578
g1281
sg1579
g1640
sg337
g1326
sbsS'transupp.h'
p2740
g311
(g1574
g313
Ntp2741
Rp2742
(dp2743
g1578
g1067
sg1579
g1674
sg337
g1072
sbsS'IwMath.h'
p2744
g311
(g1574
g313
Ntp2745
Rp2746
(dp2747
g1578
g1445
sg1579
g1615
sg337
g1462
sbsS'IwGeomQuat.h'
p2748
g311
(g1574
g313
Ntp2749
Rp2750
(dp2751
g1578
g1281
sg1579
g1640
sg337
g1338
sbsS'glplatform.h'
p2752
g311
(g1574
g313
Ntp2753
Rp2754
(dp2755
g1578
g1586
sg1579
g2179
sg337
S'e:/program files (x86)/marmelade/7.4/s3e/h/GLES/glplatform.h'
p2756
sbsS's3e-default.mkf'
p2757
g311
(g1574
g313
Ntp2758
Rp2759
(dp2760
g1578
g1570
sg1579
(lp2761
g1566
asg337
g1568
sbsS'bitset'
p2762
g311
(g1574
g313
Ntp2763
Rp2764
(dp2765
g1578
g1586
sg1579
g1587
sg337
S'e:/program files (x86)/marmelade/7.4/s3e/h/std/c++/bitset'
p2766
sbsS'alloca.h'
p2767
g311
(g1574
g313
Ntp2768
Rp2769
(dp2770
g1578
g1586
sg1579
g1608
sg337
S'e:/program files (x86)/marmelade/7.4/s3e/h/std/alloca.h'
p2771
sbsS'IwResHandler.h'
p2772
g311
(g1574
g313
Ntp2773
Rp2774
(dp2775
g1578
g1357
sg1579
g1853
sg337
g1375
sbsS'IwResHandlerMTL.h'
p2776
g311
(g1574
g313
Ntp2777
Rp2778
(dp2779
g1578
g1381
sg1579
g1725
sg337
g1398
sbsS'IwRuntime.h'
p2780
g311
(g1574
g313
Ntp2781
Rp2782
(dp2783
g1578
g1445
sg1579
g1615
sg337
g1525
sbsS'limits'
p2784
g311
(g1574
g313
Ntp2785
Rp2786
(dp2787
g1578
g1586
sg1579
g1587
sg337
S'e:/program files (x86)/marmelade/7.4/s3e/h/std/c++/limits'
p2788
sbsS'IwGeomBBox.h'
p2789
g311
(g1574
g313
Ntp2790
Rp2791
(dp2792
g1578
g1281
sg1579
g1640
sg337
g1318
sbsS'PauseMenu.h'
p2793
g311
(g1574
g313
Ntp2794
Rp2795
(dp2796
g1578
g1160
sg1579
g1690
sg337
g1173
sbsS's3eContacts.h'
p2797
g311
(g1574
g313
Ntp2798
Rp2799
(dp2800
g1578
g1586
sg1579
g1602
sg337
S'e:/program files (x86)/marmelade/7.4/s3e/h/s3eContacts.h'
p2801
sbsS's3eLicense.h'
p2802
g311
(g1574
g313
Ntp2803
Rp2804
(dp2805
g1578
g1586
sg1579
g1602
sg337
S'e:/program files (x86)/marmelade/7.4/s3e/h/s3eLicense.h'
p2806
sbsS'iwgx.config.txt'
p2807
g311
(g1574
g313
Ntp2808
Rp2809
(dp2810
g1578
g1381
sg1579
g1725
sg337
g1379
sbsS'IwTextParser.h'
p2811
g311
(g1574
g313
Ntp2812
Rp2813
(dp2814
g1578
g1445
sg1579
g1615
sg337
g1514
sbsS's3eTimer.h'
p2815
g311
(g1574
g313
Ntp2816
Rp2817
(dp2818
g1578
g1586
sg1579
g1602
sg337
S'e:/program files (x86)/marmelade/7.4/s3e/h/s3eTimer.h'
p2819
sbsS'IwGeomVec.h'
p2820
g311
(g1574
g313
Ntp2821
Rp2822
(dp2823
g1578
g1281
sg1579
g1640
sg337
g1302
sbsS'IwSerialise.h'
p2824
g311
(g1574
g313
Ntp2825
Rp2826
(dp2827
g1578
g1445
sg1579
g1615
sg337
g1460
sbsS'cstdarg'
p2828
g311
(g1574
g313
Ntp2829
Rp2830
(dp2831
g1578
g1586
sg1579
g1587
sg337
S'e:/program files (x86)/marmelade/7.4/s3e/h/std/c++/cstdarg'
p2832
sbsS'gl2ext.h'
p2833
g311
(g1574
g313
Ntp2834
Rp2835
(dp2836
g1578
g1586
sg1579
g1845
sg337
S'e:/program files (x86)/marmelade/7.4/s3e/h/GLES2/gl2ext.h'
p2837
sbsS'IwChar.h'
p2838
g311
(g1574
g313
Ntp2839
Rp2840
(dp2841
g1578
g1445
sg1579
g1615
sg337
g1472
sbsS's3eSound.h'
p2842
g311
(g1574
g313
Ntp2843
Rp2844
(dp2845
g1578
g1586
sg1579
g1602
sg337
S'e:/program files (x86)/marmelade/7.4/s3e/h/s3eSound.h'
p2846
sbsS's3eIOSBackgroundAudio.h'
p2847
g311
(g1574
g313
Ntp2848
Rp2849
(dp2850
g1578
g1586
sg1579
g1808
sg337
S'e:/program files (x86)/marmelade/7.4/s3e/h/ext/s3eIOSBackgroundAudio.h'
p2851
sbsS'exception.h'
p2852
g311
(g1574
g313
Ntp2853
Rp2854
(dp2855
g1578
g1586
sg1579
g1587
sg337
S'e:/program files (x86)/marmelade/7.4/s3e/h/std/c++/exception.h'
p2856
sbsS'Button.cpp'
p2857
g311
(g1574
g313
Ntp2858
Rp2859
(dp2860
g1578
g1160
sg1579
g1690
sg337
g1189
sbsS'iwgeom.config.txt'
p2861
g311
(g1574
g313
Ntp2862
Rp2863
(dp2864
g1578
g1281
sg1579
g1640
sg337
g1300
sbsS'Scene.cpp'
p2865
g311
(g1574
g313
Ntp2866
Rp2867
(dp2868
g1578
g1160
sg1579
g1690
sg337
g1171
sbsS'iwgx.mkf'
p2869
g311
(g1574
g313
Ntp2870
Rp2871
(dp2872
g1578
g1416
sg1579
g1725
sg337
g1414
sbsS'gl.h'
p2873
g311
(g1574
g313
Ntp2874
Rp2875
(dp2876
g1578
g1586
sg1579
g2179
sg337
S'e:/program files (x86)/marmelade/7.4/s3e/h/GLES/gl.h'
p2877
sbsS'zlib.h'
p2878
g311
(g1574
g313
Ntp2879
Rp2880
(dp2881
g1578
g1550
sg1579
g2288
sg337
g1551
sbsS'temp_defines_release.h'
p2882
g311
(g1574
g313
Ntp2883
Rp2884
(dp2885
g1578
(lp2886
sg1579
(lp2887
S"'generated files'"
p2888
asg337
S'e:/Documents/GitHub/Mastermind-Remake/Mastermind/build_mastermind_vc11/temp_defines_release.h'
p2889
sbsS'iwgl.mkf'
p2890
g311
(g1574
g313
Ntp2891
Rp2892
(dp2893
g1578
g1235
sg1579
g1596
sg337
g1233
sbsS'IwColour.h'
p2894
g311
(g1574
g313
Ntp2895
Rp2896
(dp2897
g1578
g1381
sg1579
g1725
sg337
g1406
sbsS's3eLibrary.h'
p2898
g311
(g1574
g313
Ntp2899
Rp2900
(dp2901
g1578
g1586
sg1579
g1808
sg337
S'e:/program files (x86)/marmelade/7.4/s3e/h/ext/s3eLibrary.h'
p2902
sbsS'types.h'
p2903
g311
(g1574
g313
Ntp2904
Rp2905
(dp2906
g1578
g1586
sg1579
g1739
sg337
S'e:/program files (x86)/marmelade/7.4/s3e/h/std/sys/types.h'
p2907
sbsS'ifaddrs.h'
p2908
g311
(g1574
g313
Ntp2909
Rp2910
(dp2911
g1578
g1586
sg1579
g1608
sg337
S'e:/program files (x86)/marmelade/7.4/s3e/h/std/ifaddrs.h'
p2912
sbsS'strstream'
p2913
g311
(g1574
g313
Ntp2914
Rp2915
(dp2916
g1578
g1586
sg1579
g1587
sg337
S'e:/program files (x86)/marmelade/7.4/s3e/h/std/c++/strstream'
p2917
sbsS'IwTween.cpp'
p2918
g311
(g1574
g313
Ntp2919
Rp2920
(dp2921
g1578
g1560
sg1579
g2112
sg337
g1561
sbsS'exception'
p2922
g311
(g1574
g313
Ntp2923
Rp2924
(dp2925
g1578
g1586
sg1579
g1587
sg337
S'e:/program files (x86)/marmelade/7.4/s3e/h/std/c++/exception'
p2926
sbsS'rlocks.h'
p2927
g311
(g1574
g313
Ntp2928
Rp2929
(dp2930
g1578
g1586
sg1579
g1587
sg337
S'e:/program files (x86)/marmelade/7.4/s3e/h/std/c++/rlocks.h'
p2931
sbsS'Rect.h'
p2932
g311
(g1574
g313
Ntp2933
Rp2934
(dp2935
g1578
g1160
sg1579
g1690
sg337
g1187
sbsS'rope'
p2936
g311
(g1574
g313
Ntp2937
Rp2938
(dp2939
g1578
g1586
sg1579
g1587
sg337
S'e:/program files (x86)/marmelade/7.4/s3e/h/std/c++/rope'
p2940
sbsS'jinclude.h'
p2941
g311
(g1574
g313
Ntp2942
Rp2943
(dp2944
g1578
g1067
sg1579
g1674
sg337
g1088
sbsS'IwEvent.h'
p2945
g311
(g1574
g313
Ntp2946
Rp2947
(dp2948
g1578
g1445
sg1579
g1615
sg337
g1466
sbsS'IwOptimiseSize.h'
p2949
g311
(g1574
g313
Ntp2950
Rp2951
(dp2952
g1578
g1445
sg1579
g1615
sg337
g1482
sbsS'iwgxfont_public.defines.txt'
p2953
g311
(g1574
g313
Ntp2954
Rp2955
(dp2956
g1578
g1259
sg1579
g1580
sg337
g1275
sbsS'iconv.h'
p2957
g311
(g1574
g313
Ntp2958
Rp2959
(dp2960
g1578
g1586
sg1579
g1608
sg337
S'e:/program files (x86)/marmelade/7.4/s3e/h/std/iconv.h'
p2961
sbsS's3eDevice.h'
p2962
g311
(g1574
g313
Ntp2963
Rp2964
(dp2965
g1578
g1586
sg1579
g1602
sg337
S'e:/program files (x86)/marmelade/7.4/s3e/h/s3eDevice.h'
p2966
sbsS'IwGeomSphere.h'
p2967
g311
(g1574
g313
Ntp2968
Rp2969
(dp2970
g1578
g1281
sg1579
g1640
sg337
g1304
sbsS'tiniconv.mkf'
p2971
g311
(g1574
g313
Ntp2972
Rp2973
(dp2974
g1578
g1098
sg1579
g2065
sg337
g1096
sbsS'iw2dscenegraph.defines.txt'
p2975
g311
(g1574
g313
Ntp2976
Rp2977
(dp2978
g1578
g1223
sg1579
g1899
sg337
g1224
sbsS'jdct.h'
p2979
g311
(g1574
g313
Ntp2980
Rp2981
(dp2982
g1578
g1067
sg1579
g1674
sg337
g1092
sbsS'cctype'
p2983
g311
(g1574
g313
Ntp2984
Rp2985
(dp2986
g1578
g1586
sg1579
g1587
sg337
S'e:/program files (x86)/marmelade/7.4/s3e/h/std/c++/cctype'
p2987
sbsS'IwSoundADPCM.cpp'
p2988
g311
(g1574
g313
Ntp2989
Rp2990
(dp2991
g1578
g1108
sg1579
g1626
sg337
g1122
sbsS'Mastermind.cpp'
p2992
g311
(g1574
g313
Ntp2993
Rp2994
(dp2995
g1578
g1160
sg1579
g1690
sg337
g1197
sbsS's3eConfig.h'
p2996
g311
(g1574
g313
Ntp2997
Rp2998
(dp2999
g1578
g1586
sg1579
g1602
sg337
S'e:/program files (x86)/marmelade/7.4/s3e/h/s3eConfig.h'
p3000
sbsS'IwHashString.h'
p3001
g311
(g1574
g313
Ntp3002
Rp3003
(dp3004
g1578
g1445
sg1579
g1615
sg337
g1443
sbsS'stat.h'
p3005
g311
(g1574
g313
Ntp3006
Rp3007
(dp3008
g1578
g1586
sg1579
g1739
sg337
S'e:/program files (x86)/marmelade/7.4/s3e/h/std/sys/stat.h'
p3009
sbsS'byteswap.h'
p3010
g311
(g1574
g313
Ntp3011
Rp3012
(dp3013
g1578
g1586
sg1579
g1608
sg337
S'e:/program files (x86)/marmelade/7.4/s3e/h/std/byteswap.h'
p3014
sbsS'iwresmanager.mkf'
p3015
g311
(g1574
g313
Ntp3016
Rp3017
(dp3018
g1578
g1364
sg1579
g1853
sg337
g1362
sbsS'IwUtilInitTerm.h'
p3019
g311
(g1574
g313
Ntp3020
Rp3021
(dp3022
g1578
g1445
sg1579
g1615
sg337
g1464
sbsS'pthread_1.h'
p3023
g311
(g1574
g313
Ntp3024
Rp3025
(dp3026
g1578
g1586
sg1579
g1587
sg337
S'e:/program files (x86)/marmelade/7.4/s3e/h/std/c++/pthread.h'
p3027
sbsS'iw2d.mkf'
p3028
g311
(g1574
g313
Ntp3029
Rp3030
(dp3031
g1578
g1254
sg1579
g1679
sg337
g1252
sbsS'complex'
p3032
g311
(g1574
g313
Ntp3033
Rp3034
(dp3035
g1578
g1586
sg1579
g1587
sg337
S'e:/program files (x86)/marmelade/7.4/s3e/h/std/c++/complex'
p3036
sbsS'algorithm'
p3037
g311
(g1574
g313
Ntp3038
Rp3039
(dp3040
g1578
g1586
sg1579
g1587
sg337
S'e:/program files (x86)/marmelade/7.4/s3e/h/std/c++/algorithm'
p3041
sbsS's3e.icf'
p3042
g311
(g1574
g313
Ntp3043
Rp3044
(dp3045
g1578
g1586
sg1579
g1602
sg337
S'e:/program files (x86)/marmelade/7.4/s3e/s3e.icf'
p3046
sbsS'IwVariableBitField.h'
p3047
g311
(g1574
g313
Ntp3048
Rp3049
(dp3050
g1578
g1445
sg1579
g1615
sg337
g1539
sbsS'sem.h'
p3051
g311
(g1574
g313
Ntp3052
Rp3053
(dp3054
g1578
g1586
sg1579
g1739
sg337
S'e:/program files (x86)/marmelade/7.4/s3e/h/std/sys/sem.h'
p3055
sbsS'IwGxFontState.h'
p3056
g311
(g1574
g313
Ntp3057
Rp3058
(dp3059
g1578
g1259
sg1579
g1580
sg337
g1264
sbsS'stdio.h'
p3060
g311
(g1574
g313
Ntp3061
Rp3062
(dp3063
g1578
g1586
sg1579
g1608
sg337
S'e:/program files (x86)/marmelade/7.4/s3e/h/std/stdio.h'
p3064
sbsS'Game.h'
p3065
g311
(g1574
g313
Ntp3066
Rp3067
(dp3068
g1578
g1160
sg1579
g1690
sg337
g1179
sbsS'jmemsys.h'
p3069
g311
(g1574
g313
Ntp3070
Rp3071
(dp3072
g1578
g1067
sg1579
g1674
sg337
g1070
sbsS'ios'
p3073
g311
(g1574
g313
Ntp3074
Rp3075
(dp3076
g1578
g1586
sg1579
g1587
sg337
S'e:/program files (x86)/marmelade/7.4/s3e/h/std/c++/ios'
p3077
sbsS'IwTween.h'
p3078
g311
(g1574
g313
Ntp3079
Rp3080
(dp3081
g1578
g1560
sg1579
g2112
sg337
g1558
sbsS'PVRTexTool.defines.txt'
p3082
g311
(g1574
g313
Ntp3083
Rp3084
(dp3085
g1578
g1209
sg1579
g2466
sg337
g1207
sbsS'stack'
p3086
g311
(g1574
g313
Ntp3087
Rp3088
(dp3089
g1578
g1586
sg1579
g1587
sg337
S'e:/program files (x86)/marmelade/7.4/s3e/h/std/c++/stack'
p3090
sbsS'Audio.cpp'
p3091
g311
(g1574
g313
Ntp3092
Rp3093
(dp3094
g1578
g1160
sg1579
g1690
sg337
g1193
sbsS'IwSoundParams.h'
p3095
g311
(g1574
g313
Ntp3096
Rp3097
(dp3098
g1578
g1108
sg1579
g1626
sg337
g1113
sbsS'new.h'
p3099
g311
(g1574
g313
Ntp3100
Rp3101
(dp3102
g1578
g1586
sg1579
g1587
sg337
S'e:/program files (x86)/marmelade/7.4/s3e/h/std/c++/new.h'
p3103
sbsS's3eEMail.h'
p3104
g311
(g1574
g313
Ntp3105
Rp3106
(dp3107
g1578
g1586
sg1579
g1808
sg337
S'e:/program files (x86)/marmelade/7.4/s3e/h/ext/s3eEMail.h'
p3108
sbsS's3eVideo.h'
p3109
g311
(g1574
g313
Ntp3110
Rp3111
(dp3112
g1578
g1586
sg1579
g1602
sg337
S'e:/program files (x86)/marmelade/7.4/s3e/h/s3eVideo.h'
p3113
sbsS'pngconf.h'
p3114
g311
(g1574
g313
Ntp3115
Rp3116
(dp3117
g1578
g1053
sg1579
g2352
sg337
g1054
sbsS'pwd.h'
p3118
g311
(g1574
g313
Ntp3119
Rp3120
(dp3121
g1578
g1586
sg1579
g1608
sg337
S'e:/program files (x86)/marmelade/7.4/s3e/h/std/pwd.h'
p3122
sbsS'gl3.h'
p3123
g311
(g1574
g313
Ntp3124
Rp3125
(dp3126
g1578
g1586
sg1579
g1910
sg337
S'e:/program files (x86)/marmelade/7.4/s3e/h/GLES3/gl3.h'
p3127
sbsS'IwClip.h'
p3128
g311
(g1574
g313
Ntp3129
Rp3130
(dp3131
g1578
g1381
sg1579
g1725
sg337
g1408
sbsS'IwSoundInst.h'
p3132
g311
(g1574
g313
Ntp3133
Rp3134
(dp3135
g1578
g1108
sg1579
g1626
sg337
g1128
sbsS'iwresmanager.config.txt'
p3136
g311
(g1574
g313
Ntp3137
Rp3138
(dp3139
g1578
g1357
sg1579
g1853
sg337
g1373
sbsS'IwGxShaderTechnique.h'
p3140
g311
(g1574
g313
Ntp3141
Rp3142
(dp3143
g1578
g1381
sg1579
g1725
sg337
g1394
sbsS'IwCore.h'
p3144
g311
(g1574
g313
Ntp3145
Rp3146
(dp3147
g1578
g1445
sg1579
g1615
sg337
g1541
sbsS'cfloat'
p3148
g311
(g1574
g313
Ntp3149
Rp3150
(dp3151
g1578
g1586
sg1579
g1587
sg337
S'e:/program files (x86)/marmelade/7.4/s3e/h/std/c++/cfloat'
p3152
sbsS'IwGeomMat2D.h'
p3153
g311
(g1574
g313
Ntp3154
Rp3155
(dp3156
g1578
g1281
sg1579
g1640
sg337
g1279
sbsS'IwAllocator.h'
p3157
g311
(g1574
g313
Ntp3158
Rp3159
(dp3160
g1578
g1445
sg1579
g1615
sg337
g1470
sbsS'MainMenu.cpp'
p3161
g311
(g1574
g313
Ntp3162
Rp3163
(dp3164
g1578
g1160
sg1579
g1690
sg337
g1158
sbsS'IwPath.h'
p3165
g311
(g1574
g313
Ntp3166
Rp3167
(dp3168
g1578
g1445
sg1579
g1615
sg337
g1537
sbsS'iwgxfont.mkf'
p3169
g311
(g1574
g313
Ntp3170
Rp3171
(dp3172
g1578
g1272
sg1579
g1580
sg337
g1270
sbsS'IwTexture.h'
p3173
g311
(g1574
g313
Ntp3174
Rp3175
(dp3176
g1578
g1381
sg1579
g1725
sg337
g1417
sbsS'IwGeomVec.h.tpl'
p3177
g311
(g1574
g313
Ntp3178
Rp3179
(dp3180
g1578
g1281
sg1579
g1640
sg337
g1342
sbsS's3eAccelerometer.h'
p3181
g311
(g1574
g313
Ntp3182
Rp3183
(dp3184
g1578
g1586
sg1579
g1602
sg337
S'e:/program files (x86)/marmelade/7.4/s3e/h/s3eAccelerometer.h'
p3185
sbsS'setjmp.h'
p3186
g311
(g1574
g313
Ntp3187
Rp3188
(dp3189
g1578
g1586
sg1579
g1608
sg337
S'e:/program files (x86)/marmelade/7.4/s3e/h/std/setjmp.h'
p3190
sbsS'IwSoundParams.cpp'
p3191
g311
(g1574
g313
Ntp3192
Rp3193
(dp3194
g1578
g1108
sg1579
g1626
sg337
g1120
sbsS'IwFile.h'
p3195
g311
(g1574
g313
Ntp3196
Rp3197
(dp3198
g1578
g1445
sg1579
g1615
sg337
g1498
sbsS'IwTextParseable.h'
p3199
g311
(g1574
g313
Ntp3200
Rp3201
(dp3202
g1578
g1445
sg1579
g1615
sg337
g1516
sbsS'istream.h'
p3203
g311
(g1574
g313
Ntp3204
Rp3205
(dp3206
g1578
g1586
sg1579
g1587
sg337
S'e:/program files (x86)/marmelade/7.4/s3e/h/std/c++/istream.h'
p3207
sbsS'stdint.h'
p3208
g311
(g1574
g313
Ntp3209
Rp3210
(dp3211
g1578
g1586
sg1579
g1608
sg337
S'e:/program files (x86)/marmelade/7.4/s3e/h/std/stdint.h'
p3212
sbsS'semaphore.h'
p3213
g311
(g1574
g313
Ntp3214
Rp3215
(dp3216
g1578
g1586
sg1579
g1608
sg337
S'e:/program files (x86)/marmelade/7.4/s3e/h/std/semaphore.h'
p3217
sbsS'Main.cpp'
p3218
g311
(g1574
g313
Ntp3219
Rp3220
(dp3221
g1578
g1160
sg1579
g1690
sg337
g1175
sbsS'ctime'
p3222
g311
(g1574
g313
Ntp3223
Rp3224
(dp3225
g1578
g1586
sg1579
g1587
sg337
S'e:/program files (x86)/marmelade/7.4/s3e/h/std/c++/ctime'
p3226
sbsS'sstream'
p3227
g311
(g1574
g313
Ntp3228
Rp3229
(dp3230
g1578
g1586
sg1579
g1587
sg337
S'e:/program files (x86)/marmelade/7.4/s3e/h/std/c++/sstream'
p3231
sbsS'IwGeomFBBox.h'
p3232
g311
(g1574
g313
Ntp3233
Rp3234
(dp3235
g1578
g1281
sg1579
g1640
sg337
g1298
sbsS'IwDebugPrim.h'
p3236
g311
(g1574
g313
Ntp3237
Rp3238
(dp3239
g1578
g1381
sg1579
g1725
sg337
g1388
sbsS'IwGxFontContainer.h'
p3240
g311
(g1574
g313
Ntp3241
Rp3242
(dp3243
g1578
g1259
sg1579
g1580
sg337
g1273
sbsS'IwGeomSVec3.h'
p3244
g311
(g1574
g313
Ntp3245
Rp3246
(dp3247
g1578
g1281
sg1579
g1640
sg337
g1332
sbsS'iw2dscenegraphcore.mkf'
p3248
g311
(g1574
g313
Ntp3249
Rp3250
(dp3251
g1578
g1435
sg1579
g2684
sg337
g1433
sbsS's3eExt.h'
p3252
g311
(g1574
g313
Ntp3253
Rp3254
(dp3255
g1578
g1586
sg1579
g1602
sg337
S'e:/program files (x86)/marmelade/7.4/s3e/h/s3eExt.h'
p3256
sbsS'IwGeomFVec3.h'
p3257
g311
(g1574
g313
Ntp3258
Rp3259
(dp3260
g1578
g1281
sg1579
g1640
sg337
g1314
sbsS'streambuf'
p3261
g311
(g1574
g313
Ntp3262
Rp3263
(dp3264
g1578
g1586
sg1579
g1587
sg337
S'e:/program files (x86)/marmelade/7.4/s3e/h/std/c++/streambuf'
p3265
sbsS's3eMetrics.h'
p3266
g311
(g1574
g313
Ntp3267
Rp3268
(dp3269
g1578
g1586
sg1579
g1808
sg337
S'e:/program files (x86)/marmelade/7.4/s3e/h/ext/s3eMetrics.h'
p3270
sbsS'IwGxFont.h'
p3271
g311
(g1574
g313
Ntp3272
Rp3273
(dp3274
g1578
g1259
sg1579
g1580
sg337
g1268
sbsS's3eSecureStorage.h'
p3275
g311
(g1574
g313
Ntp3276
Rp3277
(dp3278
g1578
g1586
sg1579
g1602
sg337
S'e:/program files (x86)/marmelade/7.4/s3e/h/s3eSecureStorage.h'
p3279
sbsS'string.h'
p3280
g311
(g1574
g313
Ntp3281
Rp3282
(dp3283
g1578
g1586
sg1579
g1608
sg337
S'e:/program files (x86)/marmelade/7.4/s3e/h/std/string.h'
p3284
sbsS'IwResource.h'
p3285
g311
(g1574
g313
Ntp3286
Rp3287
(dp3288
g1578
g1445
sg1579
g1615
sg337
g1508
sbsS'IwGeomSVec2.h'
p3289
g311
(g1574
g313
Ntp3290
Rp3291
(dp3292
g1578
g1281
sg1579
g1640
sg337
g1328
sbsS'libjpeg.mkf'
p3293
g311
(g1574
g313
Ntp3294
Rp3295
(dp3296
g1578
g1063
sg1579
(lp3297
g1059
asg337
g1061
sbsS'IwGxDebug.h'
p3298
g311
(g1574
g313
Ntp3299
Rp3300
(dp3301
g1578
g1381
sg1579
g1725
sg337
g1400
sbsS'float.h'
p3302
g311
(g1574
g313
Ntp3303
Rp3304
(dp3305
g1578
g1586
sg1579
g1608
sg337
S'e:/program files (x86)/marmelade/7.4/s3e/h/std/float.h'
p3306
sbsS'iomanip.h'
p3307
g311
(g1574
g313
Ntp3308
Rp3309
(dp3310
g1578
g1586
sg1579
g1587
sg337
S'e:/program files (x86)/marmelade/7.4/s3e/h/std/c++/iomanip.h'
p3311
sbsS'Audio.h'
p3312
g311
(g1574
g313
Ntp3313
Rp3314
(dp3315
g1578
g1160
sg1579
g1690
sg337
g1185
sbsS'IwKeymap.h'
p3316
g311
(g1574
g313
Ntp3317
Rp3318
(dp3319
g1578
g1445
sg1579
g1615
sg337
g1533
sbsS'IwDebug.h'
p3320
g311
(g1574
g313
Ntp3321
Rp3322
(dp3323
g1578
g1445
sg1579
g1615
sg337
g1494
sbsS'IwOptimiseThumb.h'
p3324
g311
(g1574
g313
Ntp3325
Rp3326
(dp3327
g1578
g1445
sg1579
g1615
sg337
g1474
sbsS'IwGeomMenu.h'
p3328
g311
(g1574
g313
Ntp3329
Rp3330
(dp3331
g1578
g1281
sg1579
g1640
sg337
g1288
sbsS'IwDivTable.h'
p3332
g311
(g1574
g313
Ntp3333
Rp3334
(dp3335
g1578
g1445
sg1579
g1615
sg337
g1480
sbsS'ctype.h'
p3336
g311
(g1574
g313
Ntp3337
Rp3338
(dp3339
g1578
g1586
sg1579
g1608
sg337
S'e:/program files (x86)/marmelade/7.4/s3e/h/std/ctype.h'
p3340
sbsS'IwGeomMat.h'
p3341
g311
(g1574
g313
Ntp3342
Rp3343
(dp3344
g1578
g1281
sg1579
g1640
sg337
g1310
sbsS'IwResGroup.h'
p3345
g311
(g1574
g313
Ntp3346
Rp3347
(dp3348
g1578
g1357
sg1579
g1853
sg337
g1369
sbsS'signal_1.h'
p3349
g311
(g1574
g313
Ntp3350
Rp3351
(dp3352
g1578
g1586
sg1579
g1739
sg337
S'e:/program files (x86)/marmelade/7.4/s3e/h/std/sys/signal.h'
p3353
sbsS'IwSoundData.cpp'
p3354
g311
(g1574
g313
Ntp3355
Rp3356
(dp3357
g1578
g1108
sg1579
g1626
sg337
g1138
sbsS'functional'
p3358
g311
(g1574
g313
Ntp3359
Rp3360
(dp3361
g1578
g1586
sg1579
g1587
sg337
S'e:/program files (x86)/marmelade/7.4/s3e/h/std/c++/functional'
p3362
sbsS'shm.h'
p3363
g311
(g1574
g313
Ntp3364
Rp3365
(dp3366
g1578
g1586
sg1579
g1739
sg337
S'e:/program files (x86)/marmelade/7.4/s3e/h/std/sys/shm.h'
p3367
sbsS'IwManagedList.h'
p3368
g311
(g1574
g313
Ntp3369
Rp3370
(dp3371
g1578
g1445
sg1579
g1615
sg337
g1518
sbsS'Game.cpp'
p3372
g311
(g1574
g313
Ntp3373
Rp3374
(dp3375
g1578
g1160
sg1579
g1690
sg337
g1165
sbsS'prctl.h'
p3376
g311
(g1574
g313
Ntp3377
Rp3378
(dp3379
g1578
g1586
sg1579
g1739
sg337
S'e:/program files (x86)/marmelade/7.4/s3e/h/std/sys/prctl.h'
p3380
sbsS'IwGxStream.h'
p3381
g311
(g1574
g313
Ntp3382
Rp3383
(dp3384
g1578
g1381
sg1579
g1725
sg337
g1382
sbsS'temp_defines_debug.h'
p3385
g311
(g1574
g313
Ntp3386
Rp3387
(dp3388
g1578
(lp3389
sg1579
(lp3390
g2888
asg337
S'e:/Documents/GitHub/Mastermind-Remake/Mastermind/build_mastermind_vc11/temp_defines_debug.h'
p3391
sbsS'utility'
p3392
g311
(g1574
g313
Ntp3393
Rp3394
(dp3395
g1578
g1586
sg1579
g1587
sg337
S'e:/program files (x86)/marmelade/7.4/s3e/h/std/c++/utility'
p3396
sbsS'Resource.cpp'
p3397
g311
(g1574
g313
Ntp3398
Rp3399
(dp3400
g1578
g1160
sg1579
g1690
sg337
g1163
sbsS'IwGeomLegacy.h'
p3401
g311
(g1574
g313
Ntp3402
Rp3403
(dp3404
g1578
g1281
sg1579
g1640
sg337
g1340
sbsS'IwTPage.h'
p3405
g311
(g1574
g313
Ntp3406
Rp3407
(dp3408
g1578
g1381
sg1579
g1725
sg337
g1396
sbsS'IwResSerialise.h'
p3409
g311
(g1574
g313
Ntp3410
Rp3411
(dp3412
g1578
g1357
sg1579
g1853
sg337
g1371
sbsS's3eCrypto.h'
p3413
g311
(g1574
g313
Ntp3414
Rp3415
(dp3416
g1578
g1586
sg1579
g1602
sg337
S'e:/program files (x86)/marmelade/7.4/s3e/h/s3eCrypto.h'
p3417
sbsS's3eKeyboard.h'
p3418
g311
(g1574
g313
Ntp3419
Rp3420
(dp3421
g1578
g1586
sg1579
g1602
sg337
S'e:/program files (x86)/marmelade/7.4/s3e/h/s3eKeyboard.h'
p3422
sbsS'fcntl.h'
p3423
g311
(g1574
g313
Ntp3424
Rp3425
(dp3426
g1578
g1586
sg1579
g1608
sg337
S'e:/program files (x86)/marmelade/7.4/s3e/h/std/fcntl.h'
p3427
sbsS'Iw2DSceneGraphCore.h'
p3428
g311
(g1574
g313
Ntp3429
Rp3430
(dp3431
g1578
g1438
sg1579
g2684
sg337
g1436
sbsS'memory.h'
p3432
g311
(g1574
g313
Ntp3433
Rp3434
(dp3435
g1578
g1586
sg1579
g1608
sg337
S'e:/program files (x86)/marmelade/7.4/s3e/h/std/memory.h'
p3436
sbsS'utime.h'
p3437
g311
(g1574
g313
Ntp3438
Rp3439
(dp3440
g1578
g1586
sg1579
g1608
sg337
S'e:/program files (x86)/marmelade/7.4/s3e/h/std/utime.h'
p3441
sbsS'pthread.h'
p3442
g311
(g1574
g313
Ntp3443
Rp3444
(dp3445
g1578
g1586
sg1579
g1608
sg337
S'e:/program files (x86)/marmelade/7.4/s3e/h/std/pthread.h'
p3446
sbsS'IwGeomIntersect.h'
p3447
g311
(g1574
g313
Ntp3448
Rp3449
(dp3450
g1578
g1281
sg1579
g1640
sg337
g1336
sbsS'IwTextParserITX.h'
p3451
g311
(g1574
g313
Ntp3452
Rp3453
(dp3454
g1578
g1445
sg1579
g1615
sg337
g1468
sbsS'egl_1.h'
p3455
g311
(g1574
g313
Ntp3456
Rp3457
(dp3458
g1578
g1586
sg1579
g2179
sg337
S'e:/program files (x86)/marmelade/7.4/s3e/h/GLES/egl.h'
p3459
sbsS'Iw2DSceneGraph.cpp'
p3460
g311
(g1574
g313
Ntp3461
Rp3462
(dp3463
g1578
g1223
sg1579
g1899
sg337
g1221
sbsS'ostream.h'
p3464
g311
(g1574
g313
Ntp3465
Rp3466
(dp3467
g1578
g1586
sg1579
g1587
sg337
S'e:/program files (x86)/marmelade/7.4/s3e/h/std/c++/ostream.h'
p3468
sbsS'stl_user_config.h'
p3469
g311
(g1574
g313
Ntp3470
Rp3471
(dp3472
g1578
g1586
sg1579
g1587
sg337
S'e:/program files (x86)/marmelade/7.4/s3e/h/std/c++/stl_user_config.h'
p3473
sbsS'IwProfileMenu.h'
p3474
g311
(g1574
g313
Ntp3475
Rp3476
(dp3477
g1578
g1445
sg1579
g1615
sg337
g1531
sbsS'MarmaladeVersion.h'
p3478
g311
(g1574
g313
Ntp3479
Rp3480
(dp3481
g1578
g1586
sg1579
g1602
sg337
S'e:/program files (x86)/marmelade/7.4/s3e/h/MarmaladeVersion.h'
p3482
sbsS'IwResHandlerWAV.h'
p3483
g311
(g1574
g313
Ntp3484
Rp3485
(dp3486
g1578
g1108
sg1579
g1626
sg337
g1130
sbsS'gl3platform.h'
p3487
g311
(g1574
g313
Ntp3488
Rp3489
(dp3490
g1578
g1586
sg1579
g1910
sg337
S'e:/program files (x86)/marmelade/7.4/s3e/h/GLES3/gl3platform.h'
p3491
sbsS'ios.h'
p3492
g311
(g1574
g313
Ntp3493
Rp3494
(dp3495
g1578
g1586
sg1579
g1587
sg337
S'e:/program files (x86)/marmelade/7.4/s3e/h/std/c++/ios.h'
p3496
sbsS'IwImageHelper.h'
p3497
g311
(g1574
g313
Ntp3498
Rp3499
(dp3500
g1578
g1445
sg1579
g1615
sg337
g1535
sbsS'hash_set'
p3501
g311
(g1574
g313
Ntp3502
Rp3503
(dp3504
g1578
g1586
sg1579
g1587
sg337
S'e:/program files (x86)/marmelade/7.4/s3e/h/std/c++/hash_set'
p3505
sbsS'IwGeomFQuat.h'
p3506
g311
(g1574
g313
Ntp3507
Rp3508
(dp3509
g1578
g1281
sg1579
g1640
sg337
g1330
sbsS'jmorecfg.h'
p3510
g311
(g1574
g313
Ntp3511
Rp3512
(dp3513
g1578
g1067
sg1579
g1674
sg337
g1082
sbsS'eglplatform.h'
p3514
g311
(g1574
g313
Ntp3515
Rp3516
(dp3517
g1578
g1586
sg1579
g1942
sg337
S'e:/program files (x86)/marmelade/7.4/s3e/h/EGL/eglplatform.h'
p3518
sbsS'cmath'
p3519
g311
(g1574
g313
Ntp3520
Rp3521
(dp3522
g1578
g1586
sg1579
g1587
sg337
S'e:/program files (x86)/marmelade/7.4/s3e/h/std/c++/cmath'
p3523
sbsS'math_gcc.h'
p3524
g311
(g1574
g313
Ntp3525
Rp3526
(dp3527
g1578
g1586
sg1579
g1608
sg337
S'e:/program files (x86)/marmelade/7.4/s3e/h/std/math_gcc.h'
p3528
sbsS's3eMemory.h'
p3529
g311
(g1574
g313
Ntp3530
Rp3531
(dp3532
g1578
g1586
sg1579
g1602
sg337
S'e:/program files (x86)/marmelade/7.4/s3e/h/s3eMemory.h'
p3533
sbsS'strings.h'
p3534
g311
(g1574
g313
Ntp3535
Rp3536
(dp3537
g1578
g1586
sg1579
g1608
sg337
S'e:/program files (x86)/marmelade/7.4/s3e/h/std/strings.h'
p3538
sbsS's3eFile.h'
p3539
g311
(g1574
g313
Ntp3540
Rp3541
(dp3542
g1578
g1586
sg1579
g1602
sg337
S'e:/program files (x86)/marmelade/7.4/s3e/h/s3eFile.h'
p3543
sbsS'IwGxTypes.h'
p3544
g311
(g1574
g313
Ntp3545
Rp3546
(dp3547
g1578
g1381
sg1579
g1725
sg337
g1427
sbsS'cerrno'
p3548
g311
(g1574
g313
Ntp3549
Rp3550
(dp3551
g1578
g1586
sg1579
g1587
sg337
S'e:/program files (x86)/marmelade/7.4/s3e/h/std/c++/cerrno'
p3552
sbsS'IwSoundManager.cpp'
p3553
g311
(g1574
g313
Ntp3554
Rp3555
(dp3556
g1578
g1108
sg1579
g1626
sg337
g1109
sbsS'soundengine.mkf'
p3557
g311
(g1574
g313
Ntp3558
Rp3559
(dp3560
g1578
g1117
sg1579
g1626
sg337
g1115
sbsS'resource.h'
p3561
g311
(g1574
g313
Ntp3562
Rp3563
(dp3564
g1578
g1586
sg1579
g1739
sg337
S'e:/program files (x86)/marmelade/7.4/s3e/h/std/sys/resource.h'
p3565
sbsS'clocale'
p3566
g311
(g1574
g313
Ntp3567
Rp3568
(dp3569
g1578
g1586
sg1579
g1587
sg337
S'e:/program files (x86)/marmelade/7.4/s3e/h/std/c++/clocale'
p3570
sbsS'pvrtextool.mkf'
p3571
g311
(g1574
g313
Ntp3572
Rp3573
(dp3574
g1578
g1216
sg1579
g2216
sg337
g1214
sbsS'csetjmp'
p3575
g311
(g1574
g313
Ntp3576
Rp3577
(dp3578
g1578
g1586
sg1579
g1587
sg337
S'e:/program files (x86)/marmelade/7.4/s3e/h/std/c++/csetjmp'
p3579
sbsS'netdb.h'
p3580
g311
(g1574
g313
Ntp3581
Rp3582
(dp3583
g1578
g1586
sg1579
g1608
sg337
S'e:/program files (x86)/marmelade/7.4/s3e/h/std/netdb.h'
p3584
sbsS's3eAndroidJNI.h'
p3585
g311
(g1574
g313
Ntp3586
Rp3587
(dp3588
g1578
g1586
sg1579
g1808
sg337
S'e:/program files (x86)/marmelade/7.4/s3e/h/ext/s3eAndroidJNI.h'
p3589
sbsS'stdexcept'
p3590
g311
(g1574
g313
Ntp3591
Rp3592
(dp3593
g1578
g1586
sg1579
g1587
sg337
S'e:/program files (x86)/marmelade/7.4/s3e/h/std/c++/stdexcept'
p3594
sbsS'math.h'
p3595
g311
(g1574
g313
Ntp3596
Rp3597
(dp3598
g1578
g1586
sg1579
g1608
sg337
S'e:/program files (x86)/marmelade/7.4/s3e/h/std/math.h'
p3599
sbsS'stdbool.h'
p3600
g311
(g1574
g313
Ntp3601
Rp3602
(dp3603
g1578
g1586
sg1579
g1608
sg337
S'e:/program files (x86)/marmelade/7.4/s3e/h/std/stdbool.h'
p3604
sbsS'uio.h'
p3605
g311
(g1574
g313
Ntp3606
Rp3607
(dp3608
g1578
g1586
sg1579
g1739
sg337
S'e:/program files (x86)/marmelade/7.4/s3e/h/std/sys/uio.h'
p3609
sbsS'IwUncopyable.h'
p3610
g311
(g1574
g313
Ntp3611
Rp3612
(dp3613
g1578
g1445
sg1579
g1615
sg337
g1529
sbssS'juice_build_type'
p3614
g4
sS'tests'
p3615
(lp3616
sS'project_name'
p3617
g319
sS'root_file'
p3618
g124
sS'current_root'
p3619
S'e:/Documents/GitHub/Mastermind-Remake/Mastermind'
p3620
sS'dependencies'
p3621
(lp3622
sS'include_paths'
p3623
(lp3624
S'e:/program files (x86)/marmelade/7.4/modules/iw2d/h'
p3625
aS'e:/program files (x86)/marmelade/7.4/modules/iwgx/h'
p3626
aS'e:/program files (x86)/marmelade/7.4/modules/iwgl/h'
p3627
aS'e:/program files (x86)/marmelade/7.4/modules/iwutil/h'
p3628
aS'e:/program files (x86)/marmelade/7.4/modules/third_party/libjpeg/h'
p3629
aS'e:/program files (x86)/marmelade/7.4/modules/third_party/zlib/h'
p3630
aS'e:/program files (x86)/marmelade/7.4/modules/third_party/libpng/h'
p3631
aS'e:/program files (x86)/marmelade/7.4/modules/iwgeom/h'
p3632
aS'e:/program files (x86)/marmelade/7.4/modules/iwresmanager/h'
p3633
aS'e:/program files (x86)/marmelade/7.4/extensions/pvrtextool/h'
p3634
aS'e:/program files (x86)/marmelade/7.4/modules/iwgxfont/h'
p3635
aS'e:/program files (x86)/marmelade/7.4/modules/third_party/tiniconv/source'
p3636
aS'e:/program files (x86)/marmelade/7.4/modules/iwtween/h'
p3637
aS'e:/program files (x86)/marmelade/7.4/modules/iw2dscenegraph/h'
p3638
aS'e:/program files (x86)/marmelade/7.4/modules/iw2dscenegraphcore/h'
p3639
aS'e:/documents/github/mastermind-remake/modules/soundengine/h'
p3640
aS'e:/documents/github/mastermind-remake/modules/soundengine/source'
p3641
aS'e:/program files (x86)/marmelade/7.4/s3e/h'
p3642
aS'e:/program files (x86)/marmelade/7.4/s3e/h/ext'
p3643
aS'e:/program files (x86)/marmelade/7.4/s3e/h/std'
p3644
aS'e:/program files (x86)/marmelade/7.4/s3e/h/std/c++'
p3645
aS'e:/program files (x86)/marmelade/7.4/s3e/h/ext_legacy'
p3646
aS'e:/program files (x86)/marmelade/7.4/s3e/h/legacy'
p3647
asS'weak_frameworks'
p3648
(lp3649
sS'extprojects'
p3650
(dp3651
sg579
(dp3652
g573
(lp3653
(S'e:/Documents/GitHub/Mastermind-Remake/Mastermind/data/textures'
p3654
S'textures'
p3655
I0
tp3656
a(S'e:/Documents/GitHub/Mastermind-Remake/Mastermind/data/audio'
p3657
S'audio'
p3658
I0
tp3659
assS'macro_types'
p3660
(dp3661
g510
I1
sg511
I0
sg512
I0
sg513
I0
sg515
I0
sg516
I0
sg517
I0
sg518
I0
sg519
I0
sg521
I0
sg522
I0
sg523
I0
sg524
I0
sg525
I0
sg527
I0
sg529
I0
sg530
I0
sg531
I0
sg532
I0
sg533
I0
sg534
I0
sg535
I0
sg536
I1
sg537
I0
sg538
I0
sg539
I0
sg540
I0
sg541
I01
sg542
I1
sg543
I0
sg544
I0
sg545
I0
sg546
I0
sg547
I0
sg548
I0
sg549
I0
ssS'commands'
p3662
(lp3663
sg581
(g1040
S'VC11'
p3664
S'X86ARM'
p3665
tp3666
sS'build_libs'
p3667
(dp3668
sg583
g0
sS'frameworks'
p3669
(lp3670
sS'environ'
p3671
(dp3672
sS'target_name_debug'
p3673
g319
sS'builders'
p3674
(dp3675
g573
(dp3676
S'.S'
p3677
(dp3678
S'rvct'
p3679
(lp3680
S'.obj'
p3681
aS'echo ARM Assembling(RVCT) ${SOURCE}...'
p3682
aS'e:/program files (x86)/marmelade/7.4/s3e\\rvct\\bin\\armasm -o ${TARGET} ${SOURCE}'
p3683
asg433
(lp3684
g3681
aS'echo ARM Assembling(GCC) ${SOURCE}...'
p3685
aS'e:/program files (x86)/marmelade/7.4/s3e\\gcc\\bin\\arm-none-eabi-gcc -c -o ${TARGET} ${SOURCE}'
p3686
asS'ppu'
p3687
(lp3688
S'.a'
p3689
aS'echo PPU Assembling(SNC) ${SOURCE}...'
p3690
aS'e:/program files (x86)/marmelade/7.4/s3e\\rvct\\bin\\armasm -o ${TARGET} ${SOURCE}'
p3691
assS'.s'
p3692
g3678
sS'.vp'
p3693
(lp3694
NaS'"E:/Program Files (x86)/Marmelade/7.4/s3e/python/python.exe" "e:/program files (x86)/marmelade/7.4/modules/iwgx/tools/compile_shaders.py" ${SOURCE}'
p3695
asssS'extproject_names'
p3696
(lp3697
sbtp3698
.