((dp0
S'arm_dbg_args'
p1
S'-via:"e:\\Documents\\GitHub\\Mastermind Remake\\Mastermind\\build_mastermind_vc11\\Mastermind_vc11_arm_debug.via" -qemu'
p2
sS'game-icf'
p3
S''
p4
sS'dist'
p5
NsS'csproj'
p6
g4
sS'module_path_append'
p7
NsS'global_path'
p8
S'e:\\documents\\github\\mastermind remake'
p9
sS'system_path'
p10
S'e:\\program files (x86)\\marmelade\\7.4\\s3e\\makefile_builder'
p11
sS'android_x86_dbg_args'
p12
S'../../tools/DeployTool/DeployTool.exe --dir "e:\\Documents\\GitHub\\Mastermind Remake\\Mastermind\\build_mastermind_vc11"'
p13
sS'no-emit'
p14
NsS'arm-float-abi'
p15
g4
sS'arm_rel_rtsm_args'
p16
S'-via:"e:\\Documents\\GitHub\\Mastermind Remake\\Mastermind\\build_mastermind_vc11\\Mastermind_vc11_arm_release.via" -qemu'
p17
sS'amd64'
p18
NsS'line-width'
p19
I80
sS'gcc_dbg_args'
p20
S'-via:"e:\\Documents\\GitHub\\Mastermind Remake\\Mastermind\\build_mastermind_vc11\\Mastermind_vc11_gcc_debug.via" -qemu'
p21
sS'android-x86'
p22
NsS'x86_dbg_exe'
p23
S'e:/program files (x86)/marmelade/7.4/s3e\\win32\\s3e_simulator_debug.exe'
p24
sS'disable-runtime-checks'
p25
NsS'release'
p26
NsS'no-make'
p27
NsS'xcode-x86-build-settings'
p28
g4
sS'optimise-size'
p29
NsS'output-name-debug'
p30
g4
sS'arm-fpu'
p31
g4
sS'proj_name'
p32
S'Mastermind_vc11'
p33
sS'rvct-version'
p34
S'none'
p35
sS'compiler'
p36
g4
sS'execute'
p37
NsS'compile-static'
p38
NsS'msvc-project'
p39
NsS'buildenv'
p40
g4
sS'quick'
p41
NsS'module_path'
p42
(lp43
S'e:/Documents/GitHub/Mastermind Remake/modules'
p44
asS'mkf_default'
p45
S's3e-default.mkf'
p46
sS'use-release-std-libs'
p47
NsS'using_perforce'
p48
I00
sS'tizen-x86'
p49
NsS'mips-s3e'
p50
NsS's3e-api-lib-name'
p51
S's3e_api_iwgl'
p52
sS'ios-no-pic'
p53
NsS'shared-arm-lib'
p54
NsS'arm-cpu'
p55
g4
sS'compile-thumb'
p56
NsS'no-ide'
p57
NsS'msvc-version'
p58
S'6.0'
p59
sS'arm'
p60
NsS'builddir'
p61
g4
sS'compile-debug-as-release'
p62
I0
sS'arm-arch'
p63
g4
sS'brief'
p64
NsS'dll'
p65
NsS'buildenv-toolset'
p66
g4
sS'version'
p67
NsS'ccache'
p68
I0
sS'offline'
p69
NsS'ios-version'
p70
g4
sS'hub_data'
p71
g4
sS'fake_vc_call'
p72
NsS'jobs'
p73
I0
sS'linkflags'
p74
NsS'debug'
p75
NsS'xcode-build-order'
p76
g4
sS'gcc_rel_rtsm_args'
p77
S'-via:"e:\\Documents\\GitHub\\Mastermind Remake\\Mastermind\\build_mastermind_vc11\\Mastermind_vc11_gcc_release.via" -qemu'
p78
sS'done_defaults'
p79
I1
sS'path'
p80
NsS's3e-data-dir'
p81
S'e:/Documents/GitHub/Mastermind Remake/Mastermind\\data'
p82
sS'enable-exceptions'
p83
NsS'osx-dll'
p84
NsS'extension'
p85
g4
sS'no-vc6'
p86
NsS'non-interactive'
p87
NsS'win32-console'
p88
NsS'dist-format'
p89
g4
sS's3e-force-arch'
p90
NsS'dump_defines'
p91
NsS'use_prebuilt'
p92
NsS'gcc-version'
p93
g4
sS'x86_dbg_args'
p94
S'-via:"e:\\Documents\\GitHub\\Mastermind Remake\\Mastermind\\build_mastermind_vc11\\Mastermind_vc11_debug.via"'
p95
sS'tizen_x86_dbg_args'
p96
g13
sS'arm-debugger'
p97
g4
sS'use_temp_extension'
p98
NsS'verbose'
p99
I0
sS'log'
p100
NsS'no-strip'
p101
NsS'rebuild'
p102
NsS'win32-simulator-dll'
p103
NsS'strict'
p104
NsS'mips_dbg_args'
p105
g13
sS'enable-global-path'
p106
NsS'cflags'
p107
NsS'dist-dir'
p108
g4
sS'xcode-arm-build-settings'
p109
g4
sS'jflags'
p110
NsS'csprojSDKRefs'
p111
g4
sS'tizen_x86_rel_exe'
p112
S'e:\\program files (x86)\\marmelade\\7.4\\s3e\\makefile_builder\\tool_launcher.exe'
p113
sS'test-assets'
p114
g4
sS'distcc'
p115
NsS'external-compiler'
p116
NsS'no-distcc'
p117
NsS'preinclude'
p118
NsS'using_sdk'
p119
I01
sS'nologo'
p120
NsS'warn-level'
p121
I2
sS'mips_dbg_exe'
p122
g113
sS'mkb_in'
p123
S'e:/Documents/GitHub/Mastermind Remake/Mastermind/Mastermind.mkb'
p124
sS'tizen_x86_dbg_exe'
p125
g113
sS'arm_dbg_exe'
p126
S'e:/program files (x86)/marmelade/7.4/s3e\\bin\\armdebug.exe'
p127
sS'csprojDLLRef'
p128
NsS'tizen_x86_rel_args'
p129
g13
sS'android_x86_dbg_exe'
p130
g113
sS'test-config'
p131
g4
sS'list-targets'
p132
NsS'arm_rel_exe'
p133
g113
sS'arm_rel_args'
p134
g13
sS'makedeps'
p135
NsS'android_x86_rel_exe'
p136
g113
sS'default-buildenv'
p137
S'VC11'
p138
sS'x86_rel_exe'
p139
g24
sS'preprocess-java'
p140
NsS'mips_rel_args'
p141
g13
sS'defines'
p142
NsS'lib'
p143
NsS'global_argv'
p144
(lp145
S'E:\\Program Files (x86)\\Marmelade\\7.4\\s3e\\makefile_builder\\mkb.py'
p146
aS'E:\\Documents\\GitHub\\Mastermind Remake\\Mastermind\\Mastermind.mkb'
p147
asS'make'
p148
NsS'optimise-speed'
p149
NsS'internal'
p150
NsS'enable-stdinc'
p151
NsS'deploy-only'
p152
NsS'x86'
p153
NsS'deploy'
p154
g4
sS'x86_run_exe'
p155
S'e:/program files (x86)/marmelade/7.4/s3e\\win32\\s3e_console.exe'
p156
sS'x86_rel_args'
p157
S'-via:"e:\\Documents\\GitHub\\Mastermind Remake\\Mastermind\\build_mastermind_vc11\\Mastermind_vc11_release.via"'
p158
sS'gcc_rel_args'
p159
g13
sS'mips'
p160
NsS'xcode-build-settings'
p161
g4
sS'incredibuild'
p162
NsS'strict-compile'
p163
NsS'use-auto-subdirs'
p164
NsS'mips_rel_exe'
p165
g113
sS'android_x86_rel_args'
p166
g13
sS'app-icf'
p167
g4
sS'deployargs'
p168
NsS'iosnativedebug'
p169
NsS'mkf_in'
p170
(lp171
S'e:\\program files (x86)\\marmelade\\7.4\\s3e\\s3e-default.mkf'
p172
aS'e:\\program files (x86)\\marmelade\\7.4\\modules\\iw2d\\iw2d.mkf'
p173
aS'e:\\program files (x86)\\marmelade\\7.4\\modules\\iwgx\\iwgx.mkf'
p174
aS'e:\\program files (x86)\\marmelade\\7.4\\modules\\iwgl\\iwgl.mkf'
p175
aS'e:\\program files (x86)\\marmelade\\7.4\\modules\\iwutil\\iwutil.mkf'
p176
aS'e:\\program files (x86)\\marmelade\\7.4\\modules\\third_party\\libjpeg\\libjpeg.mkf'
p177
aS'e:\\program files (x86)\\marmelade\\7.4\\modules\\third_party\\libpng\\libpng.mkf'
p178
aS'e:\\program files (x86)\\marmelade\\7.4\\modules\\third_party\\zlib\\zlib.mkf'
p179
aS'e:\\program files (x86)\\marmelade\\7.4\\modules\\iwgeom\\iwgeom.mkf'
p180
aS'e:\\program files (x86)\\marmelade\\7.4\\modules\\iwresmanager\\iwresmanager.mkf'
p181
aS'e:\\program files (x86)\\marmelade\\7.4\\extensions\\pvrtextool\\pvrtextool.mkf'
p182
aS'e:\\program files (x86)\\marmelade\\7.4\\modules\\iwgxfont\\iwgxfont.mkf'
p183
aS'e:\\program files (x86)\\marmelade\\7.4\\modules\\third_party\\tiniconv\\tiniconv.mkf'
p184
aS'e:\\program files (x86)\\marmelade\\7.4\\modules\\iwtween\\iwtween.mkf'
p185
aS'e:\\program files (x86)\\marmelade\\7.4\\modules\\iw2dscenegraph\\iw2dscenegraph.mkf'
p186
aS'e:\\program files (x86)\\marmelade\\7.4\\modules\\iw2dscenegraphcore\\iw2dscenegraphcore.mkf'
p187
aS'e:\\documents\\github\\mastermind remake\\modules\\soundengine\\soundengine.mkf'
p188
asS'strict-mkb'
p189
NsS'executeargs'
p190
NsS'clean'
p191
NsS'no-asm'
p192
NsS'output-name'
p193
g4
sS'no-modules'
p194
NsS'find_define'
p195
g4
s(dp196
S'e:\\program files (x86)\\marmelade\\7.4\\s3e\\makefile_builder\\templates\\win8_ext_csproj.pyc'
p197
F1415334512.0
sS'e:\\program files (x86)\\marmelade\\7.4\\s3e\\makefile_builder\\templates\\wp81_ext_csproj.pyc'
p198
F1415334512.0
sS'e:\\program files (x86)\\marmelade\\7.4\\s3e\\makefile_builder\\templates\\ws81_sln.pyc'
p199
F1415334512.0
sS'e:\\program files (x86)\\marmelade\\7.4\\s3e\\makefile_builder\\docs\\options.txt'
p200
F1415332874.0
sS'e:\\program files (x86)\\marmelade\\7.4\\s3e\\makefile_builder\\templates\\wp8_vcxproj.pyc'
p201
F1415334512.0
sS'e:\\program files (x86)\\marmelade\\7.4\\s3e\\makefile_builder\\plugins'
p202
F1420751235.7133234
sS'e:\\program files (x86)\\marmelade\\7.4\\s3e\\makefile_builder\\plugins\\SConsEmitter.pyc'
p203
F1415334512.0
sS'e:\\program files (x86)\\marmelade\\7.4\\s3e\\makefile_builder\\templates\\ws8_ext_csproj.pyc'
p204
F1415334512.0
sS'e:\\program files (x86)\\marmelade\\7.4\\s3e\\makefile_builder\\templates\\vc10_user.pyc'
p205
F1415334512.0
sS'e:\\program files (x86)\\marmelade\\7.4\\s3e\\makefile_builder\\plugins\\s3e_qmake.pyc'
p206
F1420751235.3792553
sS'e:\\program files (x86)\\marmelade\\7.4\\s3e\\makefile_builder\\plugins\\s3e_wp8.pyc'
p207
F1415334512.0
sS'e:\\program files (x86)\\marmelade\\7.4\\s3e\\makefile_builder\\plugins\\S3EEmitter.pyc'
p208
F1415334512.0
sS'e:\\program files (x86)\\marmelade\\7.4\\s3e\\makefile_builder\\templates\\xcode4.xcscheme'
p209
F1415332874.0
sS'e:\\program files (x86)\\marmelade\\7.4\\s3e\\makefile_builder\\templates\\ws8_csproj_user.pyc'
p210
F1415334512.0
sS'e:\\program files (x86)\\marmelade\\7.4\\s3e\\makefile_builder\\mkb.py'
p211
F1415332874.0
sS'e:\\program files (x86)\\marmelade\\7.4\\s3e\\makefile_builder\\plugins\\s3e_qmake.py'
p212
F1415332874.0
sS'e:\\program files (x86)\\marmelade\\7.4\\s3e\\makefile_builder\\plugins\\s3e_win8.pyc'
p213
F1415334512.0
sS'e:\\program files (x86)\\marmelade\\7.4\\s3e\\makefile_builder\\plugins\\s3e_xcode.py'
p214
F1415332874.0
sS'e:\\program files (x86)\\marmelade\\7.4\\s3e\\makefile_builder\\plugins\\s3e_wp81.pyc'
p215
F1415334512.0
sS'e:\\program files (x86)\\marmelade\\7.4\\s3e\\makefile_builder\\templates\\rvct_linker_script'
p216
F1415332874.0
sS'e:\\program files (x86)\\marmelade\\7.4\\s3e\\makefile_builder\\plugins\\linux_scons.pyc'
p217
F1415334512.0
sS'e:\\program files (x86)\\marmelade\\7.4\\s3e\\makefile_builder\\templates\\template.opt'
p218
F1415332874.0
sS'e:\\program files (x86)\\marmelade\\7.4\\s3e\\makefile_builder\\plugins\\wp81_wp81.pyc'
p219
F1415334512.0
sS'e:\\program files (x86)\\marmelade\\7.4\\s3e\\makefile_builder\\templates\\vc6_opt.pyc'
p220
F1415334512.0
sS'e:\\program files (x86)\\marmelade\\7.4\\s3e\\makefile_builder\\templates\\gdb_start.txt'
p221
F1415332874.0
sS'e:\\program files (x86)\\marmelade\\7.4\\s3e\\makefile_builder\\plugins\\XcodeEmitter.pyc'
p222
F1420751235.2012188
sS'e:\\program files (x86)\\marmelade\\7.4\\s3e\\makefile_builder\\plugins\\iphone.pyc'
p223
F1415334512.0
sS'e:\\program files (x86)\\marmelade\\7.4\\s3e\\makefile_builder\\templates\\linker_script'
p224
F1415332874.0
sS'e:\\program files (x86)\\marmelade\\7.4\\s3e\\makefile_builder\\templates\\win8_csproj.pyc'
p225
F1415334512.0
sS'e:\\program files (x86)\\marmelade\\7.4\\s3e\\makefile_builder\\templates\\Info.plist'
p226
F1415332874.0
sS'e:\\program files (x86)\\marmelade\\7.4\\s3e\\makefile_builder\\plugins\\osx_xcode.pyc'
p227
F1415334512.0
sS'e:\\program files (x86)\\marmelade\\7.4\\s3e\\makefile_builder\\plugins\\vc6_utils.pyc'
p228
F1415334512.0
sS'e:\\program files (x86)\\marmelade\\7.4\\s3e\\makefile_builder\\plugins\\s3e_vc6.pyc'
p229
F1415334512.0
sS'e:\\program files (x86)\\marmelade\\7.4\\s3e\\makefile_builder\\plugins\\win8_utils.pyc'
p230
F1415334512.0
sS'e:\\program files (x86)\\marmelade\\7.4\\s3e\\makefile_builder\\templates\\win8_csproj_user.pyc'
p231
F1415334512.0
sS'e:\\program files (x86)\\marmelade\\7.4\\s3e\\makefile_builder\\templates\\ws8_ext_sln.pyc'
p232
F1415334512.0
sS'e:\\program files (x86)\\marmelade\\7.4\\s3e\\makefile_builder\\plugins\\Emitter.pyc'
p233
F1415334512.0
sS'e:\\program files (x86)\\marmelade\\7.4\\s3e\\makefile_builder\\templates\\ws8_csproj.pyc'
p234
F1415334512.0
sS'e:\\program files (x86)\\marmelade\\7.4\\s3e\\makefile_builder\\plugins\\java.pyc'
p235
F1415334512.0
sS'e:\\program files (x86)\\marmelade\\7.4\\s3e\\makefile_builder\\plugins\\win32_vc6.pyc'
p236
F1415334512.0
sS'e:\\program files (x86)\\marmelade\\7.4\\s3e\\makefile_builder\\templates\\qmake_user.py'
p237
F1415332874.0
sS'e:\\program files (x86)\\marmelade\\7.4\\s3e\\makefile_builder\\templates\\wp8_csproj_user.pyc'
p238
F1415334512.0
sS'e:\\program files (x86)\\marmelade\\7.4\\s3e\\makefile_builder\\templates\\ws81_csproj.pyc'
p239
F1415334512.0
sS'e:\\program files (x86)\\marmelade\\7.4\\s3e\\makefile_builder\\plugins\\s3e_xcode.pyc'
p240
F1420751235.7133234
sS'e:\\program files (x86)\\marmelade\\7.4\\s3e\\makefile_builder\\mkb_util.pyc'
p241
F1415334512.0
sS'e:\\program files (x86)\\marmelade\\7.4\\s3e\\makefile_builder\\templates\\template.suo'
p242
F1415332874.0
sS'e:\\program files (x86)\\marmelade\\7.4\\s3e\\makefile_builder\\templates\\win8_sln.pyc'
p243
F1415334512.0
sS'e:\\program files (x86)\\marmelade\\7.4\\s3e\\makefile_builder\\templates\\wp8_ext_csproj.pyc'
p244
F1415334512.0
sS'e:\\program files (x86)\\marmelade\\7.4\\s3e\\makefile_builder\\plugins\\s3e_ws8.pyc'
p245
F1415334512.0
sS'e:\\program files (x86)\\marmelade\\7.4\\s3e\\makefile_builder\\templates\\scons.pyc'
p246
F1415334512.0
sS'e:\\program files (x86)\\marmelade\\7.4\\s3e\\makefile_builder\\templates\\wp8_csproj.pyc'
p247
F1415334512.0
sS'e:\\program files (x86)\\marmelade\\7.4\\s3e\\makefile_builder\\plugins\\xcode4_schememanagement.pyc'
p248
F1420751235.231225
sS'e:\\program files (x86)\\marmelade\\7.4\\s3e\\makefile_builder\\plugins\\Win8Emitter.pyc'
p249
F1415334512.0
sS'e:\\program files (x86)\\marmelade\\7.4\\s3e\\makefile_builder\\templates\\ws81_ext_csproj.pyc'
p250
F1415334512.0
sS'e:\\program files (x86)\\marmelade\\7.4\\s3e\\makefile_builder\\templates\\win32_vcproj.pyc'
p251
F1415334512.0
sS'e:\\program files (x86)\\marmelade\\7.4\\s3e\\makefile_builder\\templates\\ws8_vcxproj.pyc'
p252
F1415334512.0
sS'e:\\program files (x86)\\marmelade\\7.4\\s3e\\makefile_builder\\templates\\win32_dsw.pyc'
p253
F1415334512.0
sS'e:\\program files (x86)\\marmelade\\7.4\\s3e\\makefile_builder\\tool_launcher.exe'
p254
F1415333332.0
sS'e:\\program files (x86)\\marmelade\\7.4\\s3e\\makefile_builder\\templates\\mips_linker_script'
p255
F1415332874.0
sS'e:\\program files (x86)\\marmelade\\7.4\\s3e\\makefile_builder\\plugins\\vc7_utils.pyc'
p256
F1415334512.0
sS'e:\\program files (x86)\\marmelade\\7.4\\s3e\\makefile_builder\\templates\\win8_vcxproj.pyc'
p257
F1415334512.0
sS'e:\\program files (x86)\\marmelade\\7.4\\s3e\\makefile_builder\\docs'
p258
F1416501615.6836011
sS'e:\\program files (x86)\\marmelade\\7.4\\s3e\\makefile_builder\\templates\\wp81_ext_sln.pyc'
p259
F1415334512.0
sS'e:\\program files (x86)\\marmelade\\7.4\\s3e\\makefile_builder\\templates\\ws8_sln.pyc'
p260
F1415334512.0
sS'e:\\program files (x86)\\marmelade\\7.4\\s3e\\makefile_builder\\docs\\deprecated.defines.txt'
p261
F1415332874.0
sS'e:\\program files (x86)\\marmelade\\7.4\\s3e\\makefile_builder\\templates\\wp8_sln.pyc'
p262
F1415334512.0
sS'e:\\program files (x86)\\marmelade\\7.4\\s3e\\makefile_builder\\templates\\xcode4_DeployTool.xcscheme'
p263
F1415332874.0
sS'e:\\program files (x86)\\marmelade\\7.4\\s3e\\makefile_builder\\deployment.pyc'
p264
F1415334512.0
sS'e:\\program files (x86)\\marmelade\\7.4\\s3e\\makefile_builder\\templates\\win32_vcxproj_filters.pyc'
p265
F1415334512.0
sS'e:\\program files (x86)\\marmelade\\7.4\\s3e\\makefile_builder\\plugins\\s3e_scons.pyc'
p266
F1415334512.0
sS'e:\\program files (x86)\\marmelade\\7.4\\s3e\\makefile_builder\\plugins\\wp8_wp8.pyc'
p267
F1415334512.0
sS'e:\\program files (x86)\\marmelade\\7.4\\s3e\\makefile_builder\\templates\\make.py'
p268
F1415332874.0
sS'e:\\program files (x86)\\marmelade\\7.4\\s3e\\makefile_builder\\templates\\win32_dsp.pyc'
p269
F1415334512.0
sS'e:\\program files (x86)\\marmelade\\7.4\\s3e\\makefile_builder\\templates\\vc7_suo.pyc'
p270
F1415334512.0
sS'e:\\program files (x86)\\marmelade\\7.4\\s3e\\makefile_builder\\mkb_main.pyc'
p271
F1415334512.0
sS'e:\\program files (x86)\\marmelade\\7.4\\s3e\\makefile_builder\\templates\\ws81_csproj_user.pyc'
p272
F1415334512.0
sS'e:\\program files (x86)\\marmelade\\7.4\\s3e\\makefile_builder\\mkb_parser.pyc'
p273
F1415334512.0
sS'e:\\program files (x86)\\marmelade\\7.4\\s3e\\makefile_builder\\templates'
p274
F1416501615.6755996
sS'e:\\program files (x86)\\marmelade\\7.4\\s3e\\makefile_builder\\templates\\wp81_vcxproj.pyc'
p275
F1415334512.0
sS'e:\\program files (x86)\\marmelade\\7.4\\s3e\\makefile_builder\\docs\\deprecated.options.txt'
p276
F1415332874.0
sS'e:\\program files (x86)\\marmelade\\7.4\\s3e\\makefile_builder\\templates\\xcode_pbxuser.py'
p277
F1415332874.0
sS'e:\\program files (x86)\\marmelade\\7.4\\s3e\\makefile_builder\\plugins\\s3e_web.pyc'
p278
F1415334512.0
sS'e:\\program files (x86)\\marmelade\\7.4\\s3e\\makefile_builder\\mkb_launcher.exe'
p279
F1415333332.0
sS'e:\\program files (x86)\\marmelade\\7.4\\s3e\\makefile_builder\\docs\\parse_options.pyc'
p280
F1415334514.0
sS'e:\\program files (x86)\\marmelade\\7.4\\s3e\\makefile_builder\\plugins\\null.pyc'
p281
F1415334512.0
sS'e:\\program files (x86)\\marmelade\\7.4\\s3e\\makefile_builder\\plugins\\ws81_ws81.pyc'
p282
F1415334512.0
sS'e:\\program files (x86)\\marmelade\\7.4\\s3e\\makefile_builder\\docs\\deployment_options.txt'
p283
F1415332874.0
sS'e:\\program files (x86)\\marmelade\\7.4\\s3e\\makefile_builder\\plugins\\deploy.pyc'
p284
F1415334512.0
sS'e:\\program files (x86)\\marmelade\\7.4\\s3e\\makefile_builder\\templates\\qmake.py'
p285
F1415332874.0
sS'e:\\program files (x86)\\marmelade\\7.4\\s3e\\makefile_builder\\templates\\wp81_sln.pyc'
p286
F1415334512.0
sS'e:\\program files (x86)\\marmelade\\7.4\\s3e\\makefile_builder\\templates\\win32_sln.pyc'
p287
F1415334512.0
sS'e:\\program files (x86)\\marmelade\\7.4\\s3e\\makefile_builder\\templates\\wp81_csproj_user.pyc'
p288
F1415334512.0
sS'e:\\program files (x86)\\marmelade\\7.4\\s3e\\makefile_builder\\templates\\ws81_ext_sln.pyc'
p289
F1415334512.0
sS'e:\\program files (x86)\\marmelade\\7.4\\s3e\\makefile_builder\\templates\\vc8_user.pyc'
p290
F1415334512.0
sS'e:\\program files (x86)\\marmelade\\7.4\\s3e\\makefile_builder\\plugins\\XcodeEmitter.py'
p291
F1415332874.0
sS'e:\\program files (x86)\\marmelade\\7.4\\s3e\\makefile_builder\\plugins\\xcode4_schememanagement.py'
p292
F1415332874.0
sS'e:\\program files (x86)\\marmelade\\7.4\\s3e\\makefile_builder\\docs\\mkb.defines.txt'
p293
F1415332874.0
sS'e:\\program files (x86)\\marmelade\\7.4\\s3e\\makefile_builder\\mkb_option.pyc'
p294
F1415334512.0
sS'e:\\program files (x86)\\marmelade\\7.4\\s3e\\makefile_builder\\plugins\\s3e_ws81.pyc'
p295
F1415334512.0
sS'e:\\program files (x86)\\marmelade\\7.4\\s3e\\makefile_builder\\plugins\\MakeEmitter.pyc'
p296
F1415334512.0
sS'e:\\program files (x86)\\marmelade\\7.4\\s3e\\makefile_builder\\plugins\\s3e_make.pyc'
p297
F1415334512.0
sS'e:\\program files (x86)\\marmelade\\7.4\\s3e\\makefile_builder\\templates\\win32_vcxproj.pyc'
p298
F1415334512.0
sS'e:\\program files (x86)\\marmelade\\7.4\\s3e\\makefile_builder\\plugins\\osx_scons.pyc'
p299
F1415334512.0
sS'e:\\program files (x86)\\marmelade\\7.4\\s3e\\makefile_builder\\templates\\wp81_csproj.pyc'
p300
F1415334512.0
sS'e:\\program files (x86)\\marmelade\\7.4\\s3e\\makefile_builder\\templates\\MainWindow.xib'
p301
F1415332874.0
sS'e:\\program files (x86)\\marmelade\\7.4\\s3e\\makefile_builder\\templates\\xcode4_arm.xcscheme'
p302
F1415332874.0
sS'e:\\program files (x86)\\marmelade\\7.4\\s3e\\makefile_builder\\mkb_globals.pyc'
p303
F1415334512.0
sS'e:\\program files (x86)\\marmelade\\7.4\\s3e\\makefile_builder\\mkb_upstream.pyc'
p304
F1415334512.0
sS'e:\\program files (x86)\\marmelade\\7.4\\s3e\\makefile_builder\\plugins\\VisualStudioEmitter.pyc'
p305
F1415334512.0
sS'e:\\program files (x86)\\marmelade\\7.4\\s3e\\makefile_builder\\templates\\xcode.py'
p306
F1415332874.0
sS'e:\\program files (x86)\\marmelade\\7.4\\s3e\\makefile_builder\\plugins\\ws8_ws8.pyc'
p307
F1415334512.0
sS'e:\\program files (x86)\\marmelade\\7.4\\s3e\\makefile_builder\\templates\\ws81_vcxproj.pyc'
p308
F1415334512.0
sccopy_reg
_reconstructor
p309
(cmkb_main
MkbFile
p310
c__builtin__
object
p311
Ntp312
Rp313
(dp314
g5
(lp315
sS'target_name'
p316
S'Mastermind'
p317
sS'current_file'
p318
g124
sS'package_path'
p319
(lp320
sS'post_build'
p321
(lp322
(lp323
S'e:/program files (x86)/marmelade/7.4/s3e/tools'
p324
aS'"E:\\Program Files (x86)\\Marmelade\\7.4\\s3e\\python\\python.exe" .\\process_map.py "$(TargetPath)"'
p325
aa(S'e:\\program files (x86)\\marmelade\\7.4\\s3e\\bin'
p326
S'"s3e_plink" -l "$(TargetPath)" '
p327
g153
tp328
asS'librarys'
p329
(lp330
g309
(cmkb_main
Library
p331
g311
Ntp332
Rp333
(dp334
S'name'
p335
S'vc6_compat.lib'
p336
sS'expand_name'
p337
I00
sS'include_spec_rvct_objs'
p338
(lp339
sS'include_all_objs'
p340
I00
sS'share_arm'
p341
I00
sS'arch'
p342
S'x86'
p343
sS'nodebug'
p344
I00
sg36
Nsbag309
(g331
g311
Ntp345
Rp346
(dp347
g335
S'iw2d'
p348
sg337
I01
sg338
(lp349
sg340
Nsg341
Nsg342
Nsg344
I00
sg36
Nsbag309
(g331
g311
Ntp350
Rp351
(dp352
g335
S'ATI_Compress_MT_VC7.lib'
p353
sg337
I00
sg338
g349
sg340
Nsg341
Nsg342
S'x86'
p354
sg344
I00
sg36
Nsbag309
(g331
g311
Ntp355
Rp356
(dp357
g335
S'iwgx'
p358
sg337
I01
sg338
g349
sg340
Nsg341
Nsg342
Nsg344
I00
sg36
Nsbag309
(g331
g311
Ntp359
Rp360
(dp361
g335
S'iwgl'
p362
sg337
I01
sg338
g349
sg340
Nsg341
Nsg342
Nsg344
I00
sg36
Nsbag309
(g331
g311
Ntp363
Rp364
(dp365
g335
S'iwutil'
p366
sg337
I01
sg338
g349
sg340
Nsg341
Nsg342
Nsg344
I00
sg36
Nsbag309
(g331
g311
Ntp367
Rp368
(dp369
g335
S'jpeg'
p370
sg337
I01
sg338
g349
sg340
Nsg341
Nsg342
Nsg344
I00
sg36
Nsbag309
(g331
g311
Ntp371
Rp372
(dp373
g335
S'z'
p374
sg337
I01
sg338
g349
sg340
Nsg341
Nsg342
Nsg344
I00
sg36
Nsbag309
(g331
g311
Ntp375
Rp376
(dp377
g335
S'png'
p378
sg337
I01
sg338
g349
sg340
Nsg341
Nsg342
Nsg344
I00
sg36
Nsbag309
(g331
g311
Ntp379
Rp380
(dp381
g335
S'iwgeom'
p382
sg337
I01
sg338
g349
sg340
Nsg341
Nsg342
Nsg344
I00
sg36
Nsbag309
(g331
g311
Ntp383
Rp384
(dp385
g335
S'iwresmanager'
p386
sg337
I01
sg338
g349
sg340
Nsg341
Nsg342
Nsg344
I00
sg36
Nsbag309
(g331
g311
Ntp387
Rp388
(dp389
g335
S'iwgxfont'
p390
sg337
I01
sg338
g349
sg340
Nsg341
Nsg342
Nsg344
I00
sg36
Nsbag309
(g331
g311
Ntp391
Rp392
(dp393
g335
S'tiniconv'
p394
sg337
I01
sg338
g349
sg340
Nsg341
Nsg342
Nsg344
I00
sg36
Nsbag309
(g331
g311
Ntp395
Rp396
(dp397
g335
S's3e_cpp'
p398
sg337
I01
sg338
g339
sg340
I00
sg341
I00
sg342
Nsg344
I00
sg36
Nsbag309
(g331
g311
Ntp399
Rp400
(dp401
g335
S's3e'
p402
sg337
I01
sg338
(lp403
S'iwcrt.o'
p404
asg340
I00
sg341
I00
sg342
Nsg344
I00
sg36
Nsbag309
(g331
g311
Ntp405
Rp406
(dp407
g335
g52
sg337
I01
sg338
g339
sg340
I00
sg341
I00
sg342
S'x86'
p408
sg344
I01
sg36
Nsbag309
(g331
g311
Ntp409
Rp410
(dp411
g335
g52
sg337
I01
sg338
g339
sg340
I00
sg341
I00
sg342
S'!x86'
p412
sg344
I01
sg36
Nsbag309
(g331
g311
Ntp413
Rp414
(dp415
g335
S'stdc++'
p416
sg337
I00
sg338
g339
sg340
I00
sg341
I00
sg342
S'mips'
p417
sg344
I00
sg36
Nsbag309
(g331
g311
Ntp418
Rp419
(dp420
g335
S'c'
p421
sg337
I00
sg338
g339
sg340
I00
sg341
I00
sg342
S'mips'
p422
sg344
I00
sg36
Nsbag309
(g331
g311
Ntp423
Rp424
(dp425
g335
S'm'
p426
sg337
I00
sg338
g339
sg340
I00
sg341
I00
sg342
S'mips'
p427
sg344
I00
sg36
Nsbag309
(g331
g311
Ntp428
Rp429
(dp430
g335
S'gcc'
p431
sg337
I00
sg338
g339
sg340
I00
sg341
I00
sg342
S'mips'
p432
sg344
I00
sg36
Nsbag309
(g331
g311
Ntp433
Rp434
(dp435
g335
S'stdc++'
p436
sg337
I00
sg338
g339
sg340
I00
sg341
I00
sg342
S'gcc_x86_android'
p437
sg344
I00
sg36
Nsbag309
(g331
g311
Ntp438
Rp439
(dp440
g335
g421
sg337
I00
sg338
g339
sg340
I00
sg341
I00
sg342
S'gcc_x86_android'
p441
sg344
I00
sg36
Nsbag309
(g331
g311
Ntp442
Rp443
(dp444
g335
g426
sg337
I00
sg338
g339
sg340
I00
sg341
I00
sg342
S'gcc_x86_android'
p445
sg344
I00
sg36
Nsbag309
(g331
g311
Ntp446
Rp447
(dp448
g335
g431
sg337
I00
sg338
g339
sg340
I00
sg341
I00
sg342
S'gcc_x86_android'
p449
sg344
I00
sg36
NsbasS'library_paths'
p450
(lp451
g309
(cmkb_main
LibraryPath
p452
g311
Ntp453
Rp454
(dp455
S'expand_path'
p456
I01
sg335
S'e:/program files (x86)/marmelade/7.4/modules/iw2d'
p457
sbag309
(g452
g311
Ntp458
Rp459
(dp460
g456
I00
sg335
S'e:/program files (x86)/marmelade/7.4/modules/iwgx/atitools'
p461
sbag309
(g452
g311
Ntp462
Rp463
(dp464
g456
I01
sg335
S'e:/program files (x86)/marmelade/7.4/modules/iwgx'
p465
sbag309
(g452
g311
Ntp466
Rp467
(dp468
g456
I01
sg335
S'e:/program files (x86)/marmelade/7.4/modules/iwgl'
p469
sbag309
(g452
g311
Ntp470
Rp471
(dp472
g456
I01
sg335
S'e:/program files (x86)/marmelade/7.4/modules/iwutil'
p473
sbag309
(g452
g311
Ntp474
Rp475
(dp476
g456
I01
sg335
S'e:/program files (x86)/marmelade/7.4/modules/third_party/libjpeg'
p477
sbag309
(g452
g311
Ntp478
Rp479
(dp480
g456
I01
sg335
S'e:/program files (x86)/marmelade/7.4/modules/third_party/zlib'
p481
sbag309
(g452
g311
Ntp482
Rp483
(dp484
g456
I01
sg335
S'e:/program files (x86)/marmelade/7.4/modules/third_party/libpng'
p485
sbag309
(g452
g311
Ntp486
Rp487
(dp488
g456
I01
sg335
S'e:/program files (x86)/marmelade/7.4/modules/iwgeom'
p489
sbag309
(g452
g311
Ntp490
Rp491
(dp492
g456
I01
sg335
S'e:/program files (x86)/marmelade/7.4/modules/iwresmanager'
p493
sbag309
(g452
g311
Ntp494
Rp495
(dp496
g456
I01
sg335
S'e:/program files (x86)/marmelade/7.4/modules/iwgxfont'
p497
sbag309
(g452
g311
Ntp498
Rp499
(dp500
g456
I01
sg335
S'e:/program files (x86)/marmelade/7.4/modules/third_party/tiniconv'
p501
sbag309
(g452
g311
Ntp502
Rp503
(dp504
g456
I01
sg335
S'e:/program files (x86)/marmelade/7.4/s3e'
p505
sbasS'macros'
p506
(dp507
S'IW_USE_CALLSTACK'
p508
NsS'IW_MKF_IWGEOM'
p509
NsS'I3D_PLATFORM_S3E'
p510
NsS'IW_TRACE_CHANNEL_PVRTEXTOOL_VERBOSE'
p511
S'2'
p512
sS'IW_MKF_LIBJPEG'
p513
NsS'I3D_OS_S3E'
p514
NsS'IW_MKF_PVRTEXTOOL'
p515
NsS'IW_MKF_TINICONV'
p516
NsS'IW_APP_VERSION'
p517
S'"1.0"'
p518
sS'__S3E__'
p519
NsS'IW_MKF_IWRESMANAGER'
p520
NsS'IW_MKF_IWUTIL'
p521
NsS'IW_PLATFORM_S3E'
p522
NsS'IW_ASSERTION_CHANNEL_2D'
p523
S'1'
p524
sS'IW_APP_NAME'
p525
S'"Mastermind"'
p526
sS'IW_MKF_S3E_DEFAULT'
p527
NsS'IW_MKF_IWGXFONT'
p528
NsS'IW_MKF_IWTWEEN'
p529
NsS'IW_MKF_ZLIB'
p530
NsS'IW_MKF_IWGX'
p531
NsS'IW_MKF_IW2DSCENEGRAPH'
p532
NsS'IW_MKF_SOUNDENGINE'
p533
NsS'IW_USE_ASSERTIONS'
p534
NsS'_CRT_SECURE_NO_DEPRECATE'
p535
NsS'IW_MKF_IWGL'
p536
NsS'IW_MKF_LIBPNG'
p537
NsS'IW_TRACE_CHANNEL_IW_2DSCENEGRAPH'
p538
g524
sS'IW_DEBUG'
p539
NsS'IW_USE_TRACING'
p540
NsS'IW_ASSERTION_CHANNEL_IW_2DSCENEGRAPH'
p541
g524
sS'IW_TRACE_CHANNEL_PVRTEXTOOL'
p542
g524
sS'IW_SDK'
p543
NsS'S3E_INCLUDE_LEGACY'
p544
NsS'IW_MKF_IW2DSCENEGRAPHCORE'
p545
NsS'IW_MKF_IW2D'
p546
NsS'IW_ASSERTION_CHANNEL_PVRTEXTOOL'
p547
g524
ssS'done_warnings'
p548
(dp549
sS'subprojects'
p550
(dp551
g182
S'PVRTexTool'
p552
sg175
S'iwgl'
p553
sg183
S'iwgxfont'
p554
sg185
S'iwtween'
p555
sg172
S's3e-default.mkf'
p556
sg176
S'iwutil'
p557
sg173
S'iw2d'
p558
sg186
S'iw2dscenegraph'
p559
sg178
S'libpng'
p560
sg180
S'iwgeom'
p561
sg184
S'tiniconv'
p562
sg181
S'iwresmanager'
p563
sg179
S'zlib'
p564
sg187
S'../iw2dscenegraphcore'
p565
sg174
S'iwgx'
p566
sg188
S'SoundEngine'
p567
sg177
S'libjpeg'
p568
ssS'deployments'
p569
(dp570
S'Default'
p571
g309
(cdeployment
Deployment
p572
g311
Ntp573
Rp574
(dp575
S'got_version'
p576
I0
sS'assets'
p577
g571
sS'mkb'
p578
g313
sS'target'
p579
Nsg342
(lp580
sS'options'
p581
(dp582
S'iphone-link-lib'
p583
(lp584
sS'game-icf'
p585
NsS'android-tm'
p586
NsS'winmobile-icon32'
p587
NsS'ws8-logo-image150x150'
p588
NsS'wp81-logo-image150x150'
p589
NsS'ws81-product-version'
p590
NsS'osx-ext-dll'
p591
(lp592
S'e:/program files (x86)/marmelade/7.4/extensions/pvrtextool/lib/osx/libPVRTexTool.dylib'
p593
asS'iphone-provisioning-profile'
p594
NsS'win32-icon'
p595
NsS'ws8-splash-screen-image620x300'
p596
NsS'wp81-extra-pri'
p597
(lp598
sS'ws8-ext-capabilities'
p599
(lp600
sS'android-icon-hdpi'
p601
NsS'iphone-ipad-only'
p602
NsS'iphone-splash-full-orient'
p603
NsS'wp8-tile-fliptemplate-supports-large'
p604
NsS'iphone-show-status-bar'
p605
NsS'roku-requires-mkv'
p606
NsS'long-caption'
p607
NsS'android-pkgname'
p608
NsS'wp81-publisher-display-name'
p609
NsS'blackberry-permissions-read-device-identifying-information'
p610
NsS'ws81-certificate-end-date'
p611
NsS'psp-dlgcontentid'
p612
NsS'iphone-minimum-ios-version'
p613
NsS'target-folder'
p614
NsS'tizen-dist1-CA-path'
p615
NsS'symbian-icon2-format'
p616
NsS'tizen-author-key'
p617
NsS'firefoxos-icon-128X128'
p618
NsS'iphone-region'
p619
NsS'uiq3-icon3-mask'
p620
NsS'brew-encoding'
p621
NsS'android-x86'
p622
NsS'nds-initialcode'
p623
NsS'iphone-persistent-wifi'
p624
NsS'psp-snd0'
p625
NsS'roku-icon-focus-hd'
p626
NsS'osx-appid'
p627
NsS'winmobile-install-folder'
p628
NsS'android-external-res'
p629
(lp630
sS'ws8-product-version'
p631
NsS'brew-priviledges'
p632
NsS'iphone-icon-ipad-search'
p633
NsS'iphone-icon-ipad'
p634
NsS'iphone-skip-icon-generation'
p635
NsS'roku-hidden'
p636
NsS'psp-titlename'
p637
NsS'wp81-product-version'
p638
NsS'symbian-icon1-mask'
p639
NsS'psp-parentallevel'
p640
NsS'iphone-launch-storyboard'
p641
NsS'splashscreen-use-all'
p642
NsS'wp8-author'
p643
NsS'symbian-disable-ecompxl'
p644
NsS'splashscreen-auto-onblack'
p645
NsS'iphone-icon-dir'
p646
NsS'iphone-icon-extra'
p647
NsS'win32-ext-dll'
p648
(lp649
S'e:/program files (x86)/marmelade/7.4/extensions/pvrtextool/lib/win32/PVRTexTool.dll'
p650
asS'iphone-development-key'
p651
NsS'winmobile-icon48'
p652
NsS'android-unsigned'
p653
NsS'osx-appstore-category'
p654
NsS'version-revision'
p655
NsS'roku-icon-focus-sd'
p656
NsS'android-keystore'
p657
NsS'winmobile-png90'
p658
NsS'iphone-icon-ipad-high-res'
p659
NsS'iphone-disable-ipad'
p660
NsS'ws81-splash-screen-background'
p661
NsS'wp8-ext-capabilities'
p662
(lp663
sS'brew-icon-large'
p664
NsS'symbian-icon1-mask-black'
p665
NsS'iphone-nosign'
p666
NsS'iphone-bundle-localisations'
p667
NsS'winmobile-png60'
p668
NsS'blackberry-permissions-access-shared'
p669
NsS'blackberry-author'
p670
NsS'android-icon-xxxhdpi'
p671
NsS'olddeploytoolstyle'
p672
NsS'android_icon_gallery'
p673
NsS'wp81-splash-screen-background'
p674
NsS'winmobile-cab-compress'
p675
NsS'iphone-info-plist'
p676
NsS'ws81-ext-managed-dll'
p677
(lp678
sS'ws8-distribution-pfx-password'
p679
NsS'symbian-key'
p680
NsS'app-icf'
p681
NsS'blackberry-storepass'
p682
NsS'wp8-tile-fliptemplate-back-title'
p683
NsS'brew-compress-loader'
p684
NsS'win32-pref-windowposy'
p685
NsS'win32-pref-windowposx'
p686
NsS'roku-requires-audiometadata'
p687
NsS'wp8-exclude-low-mem'
p688
NsS'wp8-tile-fliptemplate-title'
p689
NsS'iphone-icon-ipad-search-high-res'
p690
NsS'iphone-link-libdir'
p691
(lp692
sS'wp81-ext-capabilities'
p693
(lp694
sS'blackberry-permissions-read-geolocation'
p695
NsS'ws81-ext-device-capabilities'
p696
(lp697
sS'tizen-signed'
p698
NsS'android-extra-application-manifest'
p699
(lp700
sS'ws8-ext-native-dll'
p701
(lp702
sS'symbian-icon2-mask'
p703
NsS'iphone-launch-extra'
p704
NsS'webos-memory'
p705
NsS'android-keypass'
p706
NsS'name'
p707
NsS'uiq3-icon2-format'
p708
NsS'roku-splash-screen-sd'
p709
NsS'auto-derbh'
p710
NsS'roku-icon-side-sd'
p711
NsS'android-external-assets'
p712
(lp713
sS'nds-publicsavedatasize'
p714
NsS'splashscreen'
p715
NsS'brew-mif'
p716
NsS'iphone-icon-settings-high-res'
p717
NsS'android-manifest'
p718
NsS'ws81-splash-screen-image620x300'
p719
NsS'wp81-product-name'
p720
NsS's3e-compression'
p721
NsS'tizen-author-password'
p722
NsS'wp8-tile-fliptemplate-back-content'
p723
NsS'blackberry-extra-descriptor'
p724
(lp725
sS'symbian-icon1'
p726
NsS'symbian-icon2'
p727
NsS'android-extra-styles-file'
p728
NsS'wp81-publisher-id'
p729
NsS'nds-bannertitle-jp'
p730
NsS'wp81-logo-image44x44'
p731
NsS'osx-sign-for-store'
p732
NsS'symbian7-uid'
p733
NsS'wp8-tile-fliptemplate-large-back-content'
p734
NsS'wp81-phone-publisher-id'
p735
NsS'nds-bannertitle-cn'
p736
NsS'iphone-distribution-key'
p737
NsS'android-icon-gallery'
p738
NsS'blackberry-keystore'
p739
NsS'ws8-extra-res'
p740
(lp741
sS'caption'
p742
NsS'android-extra-manifest'
p743
(lp744
sS'wp81-ext-sdk-ref'
p745
(lp746
sS'android-icon-xxhdpi'
p747
NsS'version-minor'
p748
NsS'iphone-skip-launch-generation'
p749
NsS'iphone-link-libdirs'
p750
(lp751
sS'iphone-icon-large'
p752
NsS'symbian-keypwd'
p753
NsS'symbian8-uid'
p754
NsS'symbian-cert-key'
p755
NsS'winmobile-ampd-part-number'
p756
NsS'arch'
p757
NsS'nds-romheadertemplate'
p758
NsS'webos-icon'
p759
NsS'wp81-ext-device-capabilities'
p760
(lp761
sS'psp-dlgprotectdocument'
p762
NsS'ws8-splash-screen-background'
p763
NsS'android-icon-mdpi'
p764
NsS'nds-icon'
p765
NsS'ws8-custom-manifest-fill'
p766
NsS'iphone-development-cert'
p767
NsS'blackberry-phone-icon'
p768
NsS'iphone-enable-4inch-retina'
p769
NsS'ws8-custom-manifest'
p770
NsS'version-major'
p771
NsS'wp8-genre-isgame'
p772
NsS'uiq3-uid'
p773
NsS'iphone-splash-retina-generate'
p774
NsS'tizen-hw-acceleration'
p775
NsS'iphone_bundle_localisations'
p776
NsS'tizen-dist1-key'
p777
NsS'wp81-custom-manifest-fill'
p778
NsS'wp8-custom-manifest'
p779
NsS'nds-bannertitle-ge'
p780
NsS'iphone-sign-for-distribution'
p781
NsS'wp8-tile-fliptemplate-medium-back-image'
p782
NsS'wp8-publisher-id'
p783
NsS'icon'
p784
NsS'wp8-exclude-wxga'
p785
NsS'wp81-identity-name'
p786
NsS'uiq3-icon2-mask'
p787
NsS'iphone-splashscreen-portrait'
p788
NsS'iphone-icon-high-res'
p789
NsS'ws81-distribution-pfx-password'
p790
NsS'playbook-author'
p791
NsS'android-icon-xhdpi'
p792
NsS'linux-ext-lib'
p793
(lp794
sS'blackberry-permissions-access-internet'
p795
NsS'wp8-exclude-720p'
p796
NsS'lgtv-use-drm'
p797
NsS'symbian-platsecflags'
p798
NsS'ws8-description'
p799
NsS'blackberry-playbook-icon'
p800
NsS'copyright'
p801
NsS'win32-gles-directory'
p802
NsS'version'
p803
NsS'iphone-uiviewcontroller-based-status-bar'
p804
NsS'ws81-logo-image150x150'
p805
NsS'osx-signing-identity-app'
p806
NsS'tizen-project-url'
p807
NsS'symbian-icon-svg'
p808
NsS'android-aliasname'
p809
NsS'psp-dlgmanual'
p810
NsS'brew-uid'
p811
NsS'symbian-locationsupport'
p812
NsS'wp81-logo-image50x50'
p813
NsS'ws8-ext-managed-dll'
p814
(lp815
sS'nds-bannertitle-it'
p816
NsS'ws81-custom-manifest-fill'
p817
NsS'ws8-ext-sdk-manifest-part'
p818
(lp819
sS'uiq3-icon1-mask'
p820
NsS'winmobile-icon16'
p821
NsS'ws8-product-name'
p822
NsS'blackberry-cskpass'
p823
NsS'winmobile-start-menu-folder'
p824
NsS'brew-clsid'
p825
NsS'roku-requires-bluetooth'
p826
NsS'ws8-ext-device-capabilities'
p827
(lp828
sS'blackberry-permissions-use-camera'
p829
NsS'ws81-extra-pri'
p830
(lp831
sS'iphone-prerendered-icon'
p832
NsS'iphone-appid'
p833
NsS'ws8-identity-name'
p834
NsS'tizen-dist2-CA-path'
p835
NsS'android-external-jars'
p836
(lp837
sS'winmobile-icon64'
p838
NsS'blackberry-permissions-post-notification'
p839
NsS'winmobile-setup-dll'
p840
NsS'firefoxos-manifest'
p841
NsS'win8-winrt-extra-res'
p842
(lp843
sS'wp81-ext-sdk-manifest-part'
p844
(lp845
sS'symbian9-uid'
p846
NsS'iphone-icon-ipad-ios7'
p847
NsS'winmobile-trace-file'
p848
NsS'roku-splash-color'
p849
NsS'psp-appversion'
p850
NsS'ws8-publisher-id'
p851
NsS'android-supports-gl-texture'
p852
(lp853
sS'winmobile-png45'
p854
NsS'wp81-extra-res'
p855
(lp856
sS'android-storepass'
p857
NsS'osx-signing-identity-inst'
p858
NsS'android-custom-activity'
p859
NsS'psp-discversion'
p860
NsS'wp81-ext-managed-dll'
p861
(lp862
sS'psp-copyright'
p863
NsS'embed-icf'
p864
NsS'tizen-manifest'
p865
NsS'osx-icon'
p866
NsS'webos-appinfo'
p867
NsS'psp-dlghealthwarning'
p868
NsS'webos-appid'
p869
NsS'roku-icon-side-hd'
p870
NsS'iphone-icon-ipad-search-high-res-ios7'
p871
NsS'ws81-ext-sdk-manifest-part'
p872
(lp873
sS'loader_name_prefix'
p874
NsS'iphone-launch-dir'
p875
NsS'nds-titlename'
p876
NsS'ws81-logo-image50x50'
p877
NsS'wp81-custom-manifest'
p878
NsS'osx-entitlements-plist'
p879
NsS'psp-dlgicon0'
p880
NsS'winmobile-nouninstall'
p881
NsS'psp-discid'
p882
NsS'tizen-dist2-password'
p883
NsS'ws8-ext-sdk-ref'
p884
(lp885
sS'iphone-extra-string'
p886
(lp887
sS'version-string'
p888
NsS'iphone-icon-high-res-ios7'
p889
NsS'blackberry-permissions-record-audio'
p890
NsS'ws8-certificate-end-date'
p891
NsS'tizen-so'
p892
(lp893
sS'wp8-tile-fliptemplate-small-image'
p894
NsS'playbook-authorid'
p895
NsS'iphone-signing-identity'
p896
NsS'roku-persist-quota'
p897
NsS'nds-bannertitle-fr'
p898
NsS'ws8-distribution-pfx'
p899
NsS'ws8-publisher-display-name'
p900
NsS'brew-icon-small'
p901
NsS'psp-dlgpic2'
p902
NsS'psp-dlgpic0'
p903
NsS'psp-pic0'
p904
NsS'psp-pic1'
p905
NsS'win32-pref-windowtitle'
p906
NsS'psp-icon0'
p907
NsS'psp-icon1'
p908
NsS'ws81-identity-name'
p909
NsS'winmobile-icon'
p910
NsS'iphone-no-splash'
p911
NsS'iphone-splash'
p912
NsS'iphone-app-fonts'
p913
NsS'wp8-ext-native-dll'
p914
(lp915
sS'wp81-splash-screen-image480x800'
p916
NsS'ws81-distribution-cer'
p917
NsS'iphone-backgroundmode-audio'
p918
NsS'uiq3-icon2'
p919
NsS'uiq3-icon3'
p920
NsS'uiq3-icon1'
p921
NsS'uiq3-icon1-format'
p922
NsS'ws8-logo-image50x50'
p923
NsS'symbian-icon2-mask-black'
p924
NsS'symbian-run-on-install'
p925
NsS'wp81-description'
p926
NsS'ws81-publisher-display-name'
p927
NsS'firefoxos-xulrunner'
p928
NsS'symbian-soundrecordsupport'
p929
NsS'nds-bannertitle-sp'
p930
NsS'psp-producer'
p931
NsS'iphone-apple-wwdr-cert'
p932
NsS'android-icon-nonstandard'
p933
NsS'win32-pref-processtitle'
p934
NsS'nds-bannertitle-hn'
p935
NsS'tizen-dist2-key'
p936
NsS'brew-depends'
p937
NsS'ws81-custom-manifest'
p938
NsS'iphone-icon-ipad-search-ios7'
p939
NsS'brew-icon-medium'
p940
NsS'iphone-bundle-url-name'
p941
NsS'wp8-tile-fliptemplate-large-front-image'
p942
NsS'tizen-dist2-CA-root-path'
p943
NsS'ws81-description'
p944
NsS'uiq3-icon3-format'
p945
NsS'ws81-logo-image30x30'
p946
NsS'win8-phone-extra-res'
p947
(lp948
sS'iphone-signing-host'
p949
NsS'tizen-icon'
p950
NsS'osx-info-plist'
p951
NsS'symbian-icon1-format'
p952
NsS'win8-store-extra-res'
p953
(lp954
sS'blackberry-authorid'
p955
NsS'ws81-publisher-id'
p956
NsS'ws81-distribution-pfx'
p957
NsS'wp8-description'
p958
NsS'iphone-link-opts'
p959
(lp960
sS'ws81-ext-sdk-ref'
p961
(lp962
sS'roku-splash-min-time'
p963
NsS'wp8-tile-fliptemplate-medium-front-image'
p964
NsS'provider'
p965
NsS'playbook-keystore'
p966
NsS'tizen-appid'
p967
NsS'wp8-extra-res'
p968
(lp969
sS'symbian-osexecsupport'
p970
NsS'android-install-location'
p971
NsS'nds-privatesavedatasize'
p972
NsS'playbook-storepass'
p973
NsS'android-icon-ldpi'
p974
NsS'manufacturer'
p975
NsS'itunes-artwork'
p976
NsS'iphone-extra-sections'
p977
NsS'ws81-product-name'
p978
NsS'ws81-ext-native-dll'
p979
(lp980
sS'ws8-extra-pri'
p981
(lp982
sS'wp8-product-id'
p983
NsS'ws8-logo-image30x30'
p984
NsS'wp8-ext-managed-dll'
p985
(lp986
sS'iphone-splashscreen-landscape'
p987
NsS'symbian-maxheapsize'
p988
NsS'nds-makercode'
p989
NsS'priv-sign-key'
p990
NsS'networking'
p991
NsS'android-icon'
p992
NsS'iphone-icon-settings'
p993
NsS'wp81-phone-product-id'
p994
NsS'firefoxos-icon-60X60'
p995
NsS'iphone-distribution-cert'
p996
NsS'android_extra_strings'
p997
NsS'nds-bannertitle-en'
p998
NsS'playbook-cskpass'
p999
NsS'android-so'
p1000
(lp1001
sS'wp8-higher-mem'
p1002
NsS'wp8-ext-sdk-ref'
p1003
(lp1004
sS'wp8-fast-resume-mode'
p1005
NsS'roku-splash-screen-hd'
p1006
NsS'iphone-bundle-url-schemes'
p1007
NsS'roku-screensaver-private'
p1008
NsS'osx-extra-res'
p1009
(lp1010
sS'ws81-extra-res'
p1011
(lp1012
sS'playbook-icon'
p1013
NsS'uid'
p1014
NsS'pkguid-as-uid'
p1015
NsS'wp81-ext-native-dll'
p1016
(lp1017
sS'tizen-dist1-password'
p1018
NsS'roku-screensaver-title'
p1019
NsS'osx-minimum-osx-version'
p1020
NsS'symbian-cert'
p1021
NsS'iphone-icon'
p1022
NsS'ws81-ext-capabilities'
p1023
(lp1024
sS'ws8-distribution-cer'
p1025
NsS'playbook-access-shared'
p1026
NsS'iphone-icon-ipad-high-res-ios7'
p1027
NsS'iphone-link-libs'
p1028
(lp1029
sS'wp8-exclude-wvga'
p1030
NsS'assets'
p1031
NsS'wp8-tile-fliptemplate-large-back-image'
p1032
NsS'wp8-custom-manifest-fill'
p1033
NsS'pub-sign-key'
p1034
NsS'android-extra-strings'
p1035
NsS'tizen-author-CA-path'
p1036
Nssg335
g571
sbssS'platform'
p1037
S'S3E'
p1038
sg67
S'1.0'
p1039
sS'arcade_platform'
p1040
g4
sS'extensions'
p1041
(dp1042
sS'source_groups_tree'
p1043
(dp1044
S'(libpng)'
p1045
(dp1046
S'h'
p1047
(dp1048
S'e:/program files (x86)/marmelade/7.4/modules/third_party/libpng/h/png.h'
p1049
(lp1050
I1
a(dp1051
asS'e:/program files (x86)/marmelade/7.4/modules/third_party/libpng/h/pngconf.h'
p1052
(lp1053
I1
ag1051
assS'e:/program files (x86)/marmelade/7.4/modules/third_party/libpng/libpng.mkf'
p1054
(lp1055
I1
a(dp1056
assS'(libjpeg)'
p1057
(dp1058
S'e:/program files (x86)/marmelade/7.4/modules/third_party/libjpeg/libjpeg.mkf'
p1059
(lp1060
I1
a(dp1061
asg1047
(dp1062
S'e:/program files (x86)/marmelade/7.4/modules/third_party/libjpeg/h/cderror.h'
p1063
(lp1064
I1
a(dp1065
asS'e:/program files (x86)/marmelade/7.4/modules/third_party/libjpeg/h/jversion.h'
p1066
(lp1067
I1
ag1065
asS'e:/program files (x86)/marmelade/7.4/modules/third_party/libjpeg/h/jmemsys.h'
p1068
(lp1069
I1
ag1065
asS'e:/program files (x86)/marmelade/7.4/modules/third_party/libjpeg/h/transupp.h'
p1070
(lp1071
I1
ag1065
asS'e:/program files (x86)/marmelade/7.4/modules/third_party/libjpeg/h/cdjpeg.h'
p1072
(lp1073
I1
ag1065
asS'e:/program files (x86)/marmelade/7.4/modules/third_party/libjpeg/h/jpeglib.h'
p1074
(lp1075
I1
ag1065
asS'e:/program files (x86)/marmelade/7.4/modules/third_party/libjpeg/h/jpegint.h'
p1076
(lp1077
I1
ag1065
asS'e:/program files (x86)/marmelade/7.4/modules/third_party/libjpeg/h/jchuff.h'
p1078
(lp1079
I1
ag1065
asS'e:/program files (x86)/marmelade/7.4/modules/third_party/libjpeg/h/jmorecfg.h'
p1080
(lp1081
I1
ag1065
asS'e:/program files (x86)/marmelade/7.4/modules/third_party/libjpeg/h/jconfig.h'
p1082
(lp1083
I1
ag1065
asS'e:/program files (x86)/marmelade/7.4/modules/third_party/libjpeg/h/jdhuff.h'
p1084
(lp1085
I1
ag1065
asS'e:/program files (x86)/marmelade/7.4/modules/third_party/libjpeg/h/jinclude.h'
p1086
(lp1087
I1
ag1065
asS'e:/program files (x86)/marmelade/7.4/modules/third_party/libjpeg/h/jerror.h'
p1088
(lp1089
I1
ag1065
asS'e:/program files (x86)/marmelade/7.4/modules/third_party/libjpeg/h/jdct.h'
p1090
(lp1091
I1
ag1065
asssS'(tiniconv)'
p1092
(dp1093
S'e:/program files (x86)/marmelade/7.4/modules/third_party/tiniconv/tiniconv.mkf'
p1094
(lp1095
I1
a(dp1096
asS'e:/program files (x86)/marmelade/7.4/modules/third_party/tiniconv/source/tiniconv_int.h'
p1097
(lp1098
I1
a(dp1099
asS'e:/program files (x86)/marmelade/7.4/modules/third_party/tiniconv/source/tiniconv.h'
p1100
(lp1101
I1
ag1099
assS'(SoundEngine)'
p1102
(dp1103
S'e:/documents/github/mastermind remake/modules/soundengine/soundengine.mkf'
p1104
(lp1105
I1
a(dp1106
asS'e:/documents/github/mastermind remake/modules/soundengine/h/IwSoundADPCM.h'
p1107
(lp1108
I1
a(dp1109
asS'e:/documents/github/mastermind remake/modules/soundengine/source/IwSoundManager.cpp'
p1110
(lp1111
I1
ag1109
asS'e:/documents/github/mastermind remake/modules/soundengine/source/IwSoundPCM.cpp'
p1112
(lp1113
I1
ag1109
asS'e:/documents/github/mastermind remake/modules/soundengine/h/IwSound.h'
p1114
(lp1115
I1
ag1109
asS'e:/documents/github/mastermind remake/modules/soundengine/h/IwSoundManager.h'
p1116
(lp1117
I1
ag1109
asS'e:/documents/github/mastermind remake/modules/soundengine/source/IwSoundData.cpp'
p1118
(lp1119
I1
ag1109
asS'e:/documents/github/mastermind remake/modules/soundengine/h/IwSoundInst.h'
p1120
(lp1121
I1
ag1109
asS'e:/documents/github/mastermind remake/modules/soundengine/source/IwSoundGroup.cpp'
p1122
(lp1123
I1
ag1109
asS'e:/documents/github/mastermind remake/modules/soundengine/source/IwSoundInst.cpp'
p1124
(lp1125
I1
ag1109
asS'Docs'
p1126
(dp1127
S'e:/documents/github/mastermind remake/modules/soundengine/docs/iwsound.config.txt'
p1128
(lp1129
I1
ag1109
assS'e:/documents/github/mastermind remake/modules/soundengine/h/IwSoundWAV.h'
p1130
(lp1131
I1
ag1109
asS'e:/documents/github/mastermind remake/modules/soundengine/source/IwSoundSpec.cpp'
p1132
(lp1133
I1
ag1109
asS'e:/documents/github/mastermind remake/modules/soundengine/h/IwSoundData.h'
p1134
(lp1135
I1
ag1109
asS'e:/documents/github/mastermind remake/modules/soundengine/source/IwSoundADPCM.cpp'
p1136
(lp1137
I1
ag1109
asS'e:/documents/github/mastermind remake/modules/soundengine/h/IwSoundParams.h'
p1138
(lp1139
I1
ag1109
asS'e:/documents/github/mastermind remake/modules/soundengine/source/IwResHandlerWAV.cpp'
p1140
(lp1141
I1
ag1109
asS'e:/documents/github/mastermind remake/modules/soundengine/h/IwResHandlerWAV.h'
p1142
(lp1143
I1
ag1109
asS'e:/documents/github/mastermind remake/modules/soundengine/h/IwSoundSpec.h'
p1144
(lp1145
I1
ag1109
asS'e:/documents/github/mastermind remake/modules/soundengine/h/IwSoundPCM.h'
p1146
(lp1147
I1
ag1109
asS'e:/documents/github/mastermind remake/modules/soundengine/source/IwSoundParams.cpp'
p1148
(lp1149
I1
ag1109
asS'e:/documents/github/mastermind remake/modules/soundengine/h/IwSoundGroup.h'
p1150
(lp1151
I1
ag1109
asS'e:/documents/github/mastermind remake/modules/soundengine/source/IwSoundWAV.cpp'
p1152
(lp1153
I1
ag1109
assS'source'
p1154
(dp1155
S'e:/Documents/GitHub/Mastermind Remake/Mastermind/source/Button.cpp'
p1156
(lp1157
I1
a(dp1158
asS'e:/Documents/GitHub/Mastermind Remake/Mastermind/source/Button.h'
p1159
(lp1160
I1
ag1158
asS'e:/Documents/GitHub/Mastermind Remake/Mastermind/source/PauseMenu.h'
p1161
(lp1162
I1
ag1158
asS'e:/Documents/GitHub/Mastermind Remake/Mastermind/source/Audio.h'
p1163
(lp1164
I1
ag1158
asS'e:/Documents/GitHub/Mastermind Remake/Mastermind/source/Input.cpp'
p1165
(lp1166
I1
ag1158
asS'e:/Documents/GitHub/Mastermind Remake/Mastermind/source/Rect.cpp'
p1167
(lp1168
I1
ag1158
asS'e:/Documents/GitHub/Mastermind Remake/Mastermind/source/Audio.cpp'
p1169
(lp1170
I1
ag1158
asS'e:/Documents/GitHub/Mastermind Remake/Mastermind/source/Scene.cpp'
p1171
(lp1172
I1
ag1158
asS'e:/Documents/GitHub/Mastermind Remake/Mastermind/source/MainMenu.h'
p1173
(lp1174
I1
ag1158
asS'e:/Documents/GitHub/Mastermind Remake/Mastermind/source/Main.cpp'
p1175
(lp1176
I1
ag1158
asS'e:/Documents/GitHub/Mastermind Remake/Mastermind/source/Scene.h'
p1177
(lp1178
I1
ag1158
asS'e:/Documents/GitHub/Mastermind Remake/Mastermind/source/Rect.h'
p1179
(lp1180
I1
ag1158
asS'e:/Documents/GitHub/Mastermind Remake/Mastermind/source/PauseMenu.cpp'
p1181
(lp1182
I1
ag1158
asS'e:/Documents/GitHub/Mastermind Remake/Mastermind/source/Mastermind.h'
p1183
(lp1184
I1
ag1158
asS'e:/Documents/GitHub/Mastermind Remake/Mastermind/source/Mastermind.cpp'
p1185
(lp1186
I1
ag1158
asS'e:/Documents/GitHub/Mastermind Remake/Mastermind/source/Game.h'
p1187
(lp1188
I1
ag1158
asS'e:/Documents/GitHub/Mastermind Remake/Mastermind/source/MainMenu.cpp'
p1189
(lp1190
I1
ag1158
asS'e:/Documents/GitHub/Mastermind Remake/Mastermind/source/Resource.h'
p1191
(lp1192
I1
ag1158
asS'e:/Documents/GitHub/Mastermind Remake/Mastermind/source/Game.cpp'
p1193
(lp1194
I1
ag1158
asS'e:/Documents/GitHub/Mastermind Remake/Mastermind/source/Resource.cpp'
p1195
(lp1196
I1
ag1158
asS'e:/Documents/GitHub/Mastermind Remake/Mastermind/source/Input.h'
p1197
(lp1198
I1
ag1158
assS'Extensions'
p1199
(dp1200
S'PVRTexTool'
p1201
(dp1202
S'interface'
p1203
(dp1204
S'e:/program files (x86)/marmelade/7.4/extensions/pvrtextool/interface/PVRTexTool.defines.txt'
p1205
(lp1206
I1
a(dp1207
asS'e:/program files (x86)/marmelade/7.4/extensions/pvrtextool/interface/PVRTexTool_interface.cpp'
p1208
(lp1209
I1
ag1207
assS'e:/program files (x86)/marmelade/7.4/extensions/pvrtextool/h/PVRTexTool.h'
p1210
(lp1211
I1
ag1207
asS'e:/program files (x86)/marmelade/7.4/extensions/pvrtextool/pvrtextool.mkf'
p1212
(lp1213
I1
a(dp1214
asssS"'Marmalade Studio'"
p1215
(dp1216
S'iw2dscenegraph'
p1217
(dp1218
S'e:/program files (x86)/marmelade/7.4/modules/iw2dscenegraph/source/Iw2DSceneGraph.cpp'
p1219
(lp1220
I1
a(dp1221
asS'e:/program files (x86)/marmelade/7.4/modules/iw2dscenegraph/docs/iw2dscenegraph.defines.txt'
p1222
(lp1223
I1
ag1221
asS'e:/program files (x86)/marmelade/7.4/modules/iw2dscenegraph/h/Iw2DSceneGraph.h'
p1224
(lp1225
I1
ag1221
asS'e:/program files (x86)/marmelade/7.4/modules/iw2dscenegraph/iw2dscenegraph.mkf'
p1226
(lp1227
I1
a(dp1228
assS'iwgl'
p1229
(dp1230
S'e:/program files (x86)/marmelade/7.4/modules/iwgl/iwgl.mkf'
p1231
(lp1232
I1
a(dp1233
asS'e:/program files (x86)/marmelade/7.4/modules/iwgl/h/IwGL.h'
p1234
(lp1235
I1
a(dp1236
asS'e:/program files (x86)/marmelade/7.4/modules/iwgl/docs/iwgl.config.txt'
p1237
(lp1238
I1
ag1236
asS'e:/program files (x86)/marmelade/7.4/modules/iwgl/h/IwGLExt.h'
p1239
(lp1240
I1
ag1236
assS'iw2d'
p1241
(dp1242
S'e:/program files (x86)/marmelade/7.4/modules/iw2d/docs/iw2d_public.defines.txt'
p1243
(lp1244
I1
a(dp1245
asS'e:/program files (x86)/marmelade/7.4/modules/iw2d/docs/iw2d.config.txt'
p1246
(lp1247
I1
ag1245
asS'e:/program files (x86)/marmelade/7.4/modules/iw2d/h/Iw2D.h'
p1248
(lp1249
I1
ag1245
asS'e:/program files (x86)/marmelade/7.4/modules/iw2d/iw2d.mkf'
p1250
(lp1251
I1
a(dp1252
assS'iwgxfont'
p1253
(dp1254
S'e:/program files (x86)/marmelade/7.4/modules/iwgxfont/h/IwGxFontPreparedData.h'
p1255
(lp1256
I1
a(dp1257
asS'e:/program files (x86)/marmelade/7.4/modules/iwgxfont/h/IwGxFontTypes.h'
p1258
(lp1259
I1
ag1257
asS'e:/program files (x86)/marmelade/7.4/modules/iwgxfont/docs/iwgxfont.config.txt'
p1260
(lp1261
I1
ag1257
asS'e:/program files (x86)/marmelade/7.4/modules/iwgxfont/h/IwGxFontState.h'
p1262
(lp1263
I1
ag1257
asS'e:/program files (x86)/marmelade/7.4/modules/iwgxfont/h/IwGxFontGlyph.h'
p1264
(lp1265
I1
ag1257
asS'e:/program files (x86)/marmelade/7.4/modules/iwgxfont/h/IwGxFont.h'
p1266
(lp1267
I1
ag1257
asS'e:/program files (x86)/marmelade/7.4/modules/iwgxfont/iwgxfont.mkf'
p1268
(lp1269
I1
a(dp1270
asS'e:/program files (x86)/marmelade/7.4/modules/iwgxfont/h/IwGxFontContainer.h'
p1271
(lp1272
I1
ag1257
asS'e:/program files (x86)/marmelade/7.4/modules/iwgxfont/docs/iwgxfont_public.defines.txt'
p1273
(lp1274
I1
ag1257
assS'iwgeom'
p1275
(dp1276
S'e:/program files (x86)/marmelade/7.4/modules/iwgeom/h/IwGeomMat2D.h'
p1277
(lp1278
I1
a(dp1279
asS'e:/program files (x86)/marmelade/7.4/modules/iwgeom/h/IwGeomPlane.h'
p1280
(lp1281
I1
ag1279
asS'e:/program files (x86)/marmelade/7.4/modules/iwgeom/h/IwGeomVec2.h'
p1282
(lp1283
I1
ag1279
asS'e:/program files (x86)/marmelade/7.4/modules/iwgeom/h/IwGeomCore.h'
p1284
(lp1285
I1
ag1279
asS'e:/program files (x86)/marmelade/7.4/modules/iwgeom/h/IwGeomMenu.h'
p1286
(lp1287
I1
ag1279
asS'e:/program files (x86)/marmelade/7.4/modules/iwgeom/h/IwGeomFPlane.h'
p1288
(lp1289
I1
ag1279
asS'e:/program files (x86)/marmelade/7.4/modules/iwgeom/h/IwGeomFIntersect.h'
p1290
(lp1291
I1
ag1279
asS'e:/program files (x86)/marmelade/7.4/modules/iwgeom/h/IwGeomQuat.h.tpl'
p1292
(lp1293
I1
ag1279
asS'e:/program files (x86)/marmelade/7.4/modules/iwgeom/h/IwGeomSVec4.h'
p1294
(lp1295
I1
ag1279
asS'e:/program files (x86)/marmelade/7.4/modules/iwgeom/h/IwGeomFBBox.h'
p1296
(lp1297
I1
ag1279
asS'e:/program files (x86)/marmelade/7.4/modules/iwgeom/docs/iwgeom.config.txt'
p1298
(lp1299
I1
ag1279
asS'e:/program files (x86)/marmelade/7.4/modules/iwgeom/h/IwGeomVec.h'
p1300
(lp1301
I1
ag1279
asS'e:/program files (x86)/marmelade/7.4/modules/iwgeom/h/IwGeomSphere.h'
p1302
(lp1303
I1
ag1279
asS'e:/program files (x86)/marmelade/7.4/modules/iwgeom/h/IwGeomFSphere.h'
p1304
(lp1305
I1
ag1279
asS'e:/program files (x86)/marmelade/7.4/modules/iwgeom/h/IwGeom.h'
p1306
(lp1307
I1
ag1279
asS'e:/program files (x86)/marmelade/7.4/modules/iwgeom/h/IwGeomMat.h'
p1308
(lp1309
I1
ag1279
asS'e:/program files (x86)/marmelade/7.4/modules/iwgeom/h/IwGeomVec4.h'
p1310
(lp1311
I1
ag1279
asS'e:/program files (x86)/marmelade/7.4/modules/iwgeom/h/IwGeomFVec3.h'
p1312
(lp1313
I1
ag1279
asS'e:/program files (x86)/marmelade/7.4/modules/iwgeom/h/IwGeomFVec2.h'
p1314
(lp1315
I1
ag1279
asS'e:/program files (x86)/marmelade/7.4/modules/iwgeom/h/IwGeomBBox.h'
p1316
(lp1317
I1
ag1279
asS'e:/program files (x86)/marmelade/7.4/modules/iwgeom/h/IwGeomFMat.h'
p1318
(lp1319
I1
ag1279
asS'e:/program files (x86)/marmelade/7.4/modules/iwgeom/h/IwGeomFVec4.h'
p1320
(lp1321
I1
ag1279
asS'e:/program files (x86)/marmelade/7.4/modules/iwgeom/h/IwGeomMat.h.tpl'
p1322
(lp1323
I1
ag1279
asS'e:/program files (x86)/marmelade/7.4/modules/iwgeom/h/IwGeomVec3.h'
p1324
(lp1325
I1
ag1279
asS'e:/program files (x86)/marmelade/7.4/modules/iwgeom/h/IwGeomSVec2.h'
p1326
(lp1327
I1
ag1279
asS'e:/program files (x86)/marmelade/7.4/modules/iwgeom/h/IwGeomFQuat.h'
p1328
(lp1329
I1
ag1279
asS'e:/program files (x86)/marmelade/7.4/modules/iwgeom/h/IwGeomSVec3.h'
p1330
(lp1331
I1
ag1279
asS'e:/program files (x86)/marmelade/7.4/modules/iwgeom/h/IwGeomFMat2D.h'
p1332
(lp1333
I1
ag1279
asS'e:/program files (x86)/marmelade/7.4/modules/iwgeom/h/IwGeomIntersect.h'
p1334
(lp1335
I1
ag1279
asS'e:/program files (x86)/marmelade/7.4/modules/iwgeom/h/IwGeomQuat.h'
p1336
(lp1337
I1
ag1279
asS'e:/program files (x86)/marmelade/7.4/modules/iwgeom/h/IwGeomLegacy.h'
p1338
(lp1339
I1
ag1279
asS'e:/program files (x86)/marmelade/7.4/modules/iwgeom/h/IwGeomVec.h.tpl'
p1340
(lp1341
I1
ag1279
asS'e:/program files (x86)/marmelade/7.4/modules/iwgeom/h/IwGeomMat2D.h.tpl'
p1342
(lp1343
I1
ag1279
asS'e:/program files (x86)/marmelade/7.4/modules/iwgeom/h/IwGeomSqrt.h'
p1344
(lp1345
I1
ag1279
asS'e:/program files (x86)/marmelade/7.4/modules/iwgeom/iwgeom.mkf'
p1346
(lp1347
I1
a(dp1348
asS'e:/program files (x86)/marmelade/7.4/modules/iwgeom/h/IwGeomSQuat.h'
p1349
(lp1350
I1
ag1279
assS'iwresmanager'
p1351
(dp1352
S'e:/program files (x86)/marmelade/7.4/modules/iwresmanager/h/IwResHandlerImage.h'
p1353
(lp1354
I1
a(dp1355
asS'e:/program files (x86)/marmelade/7.4/modules/iwresmanager/h/IwResManagerClass.h'
p1356
(lp1357
I1
ag1355
asS'e:/program files (x86)/marmelade/7.4/modules/iwresmanager/h/IwResHandlerGROUP.h'
p1358
(lp1359
I1
ag1355
asS'e:/program files (x86)/marmelade/7.4/modules/iwresmanager/iwresmanager.mkf'
p1360
(lp1361
I1
a(dp1362
asS'e:/program files (x86)/marmelade/7.4/modules/iwresmanager/h/IwResHandlerITX.h'
p1363
(lp1364
I1
ag1355
asS'e:/program files (x86)/marmelade/7.4/modules/iwresmanager/h/IwResManager.h'
p1365
(lp1366
I1
ag1355
asS'e:/program files (x86)/marmelade/7.4/modules/iwresmanager/h/IwResGroup.h'
p1367
(lp1368
I1
ag1355
asS'e:/program files (x86)/marmelade/7.4/modules/iwresmanager/h/IwResSerialise.h'
p1369
(lp1370
I1
ag1355
asS'e:/program files (x86)/marmelade/7.4/modules/iwresmanager/docs/iwresmanager.config.txt'
p1371
(lp1372
I1
ag1355
asS'e:/program files (x86)/marmelade/7.4/modules/iwresmanager/h/IwResHandler.h'
p1373
(lp1374
I1
ag1355
assS'iwgx'
p1375
(dp1376
S'e:/program files (x86)/marmelade/7.4/modules/iwgx/docs/iwgx.config.txt'
p1377
(lp1378
I1
a(dp1379
asS'e:/program files (x86)/marmelade/7.4/modules/iwgx/h/IwGxStream.h'
p1380
(lp1381
I1
ag1379
asS'e:/program files (x86)/marmelade/7.4/modules/iwgx/h/IwGxTransformSW.h'
p1382
(lp1383
I1
ag1379
asS'e:/program files (x86)/marmelade/7.4/modules/iwgx/h/IwFColour.h'
p1384
(lp1385
I1
ag1379
asS'e:/program files (x86)/marmelade/7.4/modules/iwgx/h/IwDebugPrim.h'
p1386
(lp1387
I1
ag1379
asS'e:/program files (x86)/marmelade/7.4/modules/iwgx/h/IwGxState.h'
p1388
(lp1389
I1
ag1379
asS'e:/program files (x86)/marmelade/7.4/modules/iwgx/h/IwGxError.h'
p1390
(lp1391
I1
ag1379
asS'e:/program files (x86)/marmelade/7.4/modules/iwgx/h/IwGxShaderTechnique.h'
p1392
(lp1393
I1
ag1379
asS'e:/program files (x86)/marmelade/7.4/modules/iwgx/h/IwTPage.h'
p1394
(lp1395
I1
ag1379
asS'e:/program files (x86)/marmelade/7.4/modules/iwgx/h/IwResHandlerMTL.h'
p1396
(lp1397
I1
ag1379
asS'e:/program files (x86)/marmelade/7.4/modules/iwgx/h/IwGxDebug.h'
p1398
(lp1399
I1
ag1379
asS'e:/program files (x86)/marmelade/7.4/modules/iwgx/h/IwGxMetrics.h'
p1400
(lp1401
I1
ag1379
asS'e:/program files (x86)/marmelade/7.4/modules/iwgx/h/IwClip.inl'
p1402
(lp1403
I1
ag1379
asS'e:/program files (x86)/marmelade/7.4/modules/iwgx/h/IwColour.h'
p1404
(lp1405
I1
ag1379
asS'e:/program files (x86)/marmelade/7.4/modules/iwgx/h/IwClip.h'
p1406
(lp1407
I1
ag1379
asS'e:/program files (x86)/marmelade/7.4/modules/iwgx/h/IwMatAnim.h'
p1408
(lp1409
I1
ag1379
asS'e:/program files (x86)/marmelade/7.4/modules/iwgx/h/IwGxSurface.h'
p1410
(lp1411
I1
ag1379
asS'e:/program files (x86)/marmelade/7.4/modules/iwgx/iwgx.mkf'
p1412
(lp1413
I1
a(dp1414
asS'e:/program files (x86)/marmelade/7.4/modules/iwgx/h/IwTexture.h'
p1415
(lp1416
I1
ag1379
asS'e:/program files (x86)/marmelade/7.4/modules/iwgx/h/IwGxPrint.h'
p1417
(lp1418
I1
ag1379
asS'e:/program files (x86)/marmelade/7.4/modules/iwgx/h/IwGxFuncTable.h'
p1419
(lp1420
I1
ag1379
asS'e:/program files (x86)/marmelade/7.4/modules/iwgx/docs/iwgx_public.defines.txt'
p1421
(lp1422
I1
ag1379
asS'e:/program files (x86)/marmelade/7.4/modules/iwgx/h/IwMaterial.h'
p1423
(lp1424
I1
ag1379
asS'e:/program files (x86)/marmelade/7.4/modules/iwgx/h/IwGxTypes.h'
p1425
(lp1426
I1
ag1379
asS'e:/program files (x86)/marmelade/7.4/modules/iwgx/h/IwGx.h'
p1427
(lp1428
I1
ag1379
assS'iw2dscenegraphcore'
p1429
(dp1430
S'e:/program files (x86)/marmelade/7.4/modules/iw2dscenegraphcore/iw2dscenegraphcore.mkf'
p1431
(lp1432
I1
a(dp1433
asS'e:/program files (x86)/marmelade/7.4/modules/iw2dscenegraphcore/h/Iw2DSceneGraphCore.h'
p1434
(lp1435
I1
a(dp1436
asS'e:/program files (x86)/marmelade/7.4/modules/iw2dscenegraphcore/source/Iw2DSceneGraphCore.cpp'
p1437
(lp1438
I1
ag1436
assS'iwutil'
p1439
(dp1440
S'e:/program files (x86)/marmelade/7.4/modules/iwutil/h/IwHashString.h'
p1441
(lp1442
I1
a(dp1443
asS'e:/program files (x86)/marmelade/7.4/modules/iwutil/h/IwClassFactory.h'
p1444
(lp1445
I1
ag1443
asS'e:/program files (x86)/marmelade/7.4/modules/iwutil/h/IwMemBucket.h'
p1446
(lp1447
I1
ag1443
asS'e:/program files (x86)/marmelade/7.4/modules/iwutil/h/IwBuffer.h'
p1448
(lp1449
I1
ag1443
asS'e:/program files (x86)/marmelade/7.4/modules/iwutil/h/IwMenu.h'
p1450
(lp1451
I1
ag1443
asS'e:/program files (x86)/marmelade/7.4/modules/iwutil/h/IwArray.h'
p1452
(lp1453
I1
ag1443
asS'e:/program files (x86)/marmelade/7.4/modules/iwutil/h/IwImage.h'
p1454
(lp1455
I1
ag1443
asS'e:/program files (x86)/marmelade/7.4/modules/iwutil/h/IwUTF8.h'
p1456
(lp1457
I1
ag1443
asS'e:/program files (x86)/marmelade/7.4/modules/iwutil/h/IwSerialise.h'
p1458
(lp1459
I1
ag1443
asS'e:/program files (x86)/marmelade/7.4/modules/iwutil/h/IwMath.h'
p1460
(lp1461
I1
ag1443
asS'e:/program files (x86)/marmelade/7.4/modules/iwutil/h/IwUtilInitTerm.h'
p1462
(lp1463
I1
ag1443
asS'e:/program files (x86)/marmelade/7.4/modules/iwutil/h/IwEvent.h'
p1464
(lp1465
I1
ag1443
asS'e:/program files (x86)/marmelade/7.4/modules/iwutil/h/IwTextParserITX.h'
p1466
(lp1467
I1
ag1443
asS'e:/program files (x86)/marmelade/7.4/modules/iwutil/h/IwAllocator.h'
p1468
(lp1469
I1
ag1443
asS'e:/program files (x86)/marmelade/7.4/modules/iwutil/h/IwChar.h'
p1470
(lp1471
I1
ag1443
asS'e:/program files (x86)/marmelade/7.4/modules/iwutil/h/IwOptimiseThumb.h'
p1472
(lp1473
I1
ag1443
asS'e:/program files (x86)/marmelade/7.4/modules/iwutil/h/IwMemManagerDL.h'
p1474
(lp1475
I1
ag1443
asS'e:/program files (x86)/marmelade/7.4/modules/iwutil/h/IwString.h'
p1476
(lp1477
I1
ag1443
asS'e:/program files (x86)/marmelade/7.4/modules/iwutil/h/IwDivTable.h'
p1478
(lp1479
I1
ag1443
asS'e:/program files (x86)/marmelade/7.4/modules/iwutil/h/IwOptimiseSize.h'
p1480
(lp1481
I1
ag1443
asS'e:/program files (x86)/marmelade/7.4/modules/iwutil/h/IwDivide.h'
p1482
(lp1483
I1
ag1443
asS'e:/program files (x86)/marmelade/7.4/modules/iwutil/h/IwMemory.h'
p1484
(lp1485
I1
ag1443
asS'e:/program files (x86)/marmelade/7.4/modules/iwutil/h/IwSingleton.h'
p1486
(lp1487
I1
ag1443
asS'e:/program files (x86)/marmelade/7.4/modules/iwutil/h/IwList.h'
p1488
(lp1489
I1
ag1443
asS'e:/program files (x86)/marmelade/7.4/modules/iwutil/h/IwOptimiseARM.h'
p1490
(lp1491
I1
ag1443
asS'e:/program files (x86)/marmelade/7.4/modules/iwutil/h/IwDebug.h'
p1492
(lp1493
I1
ag1443
asS'e:/program files (x86)/marmelade/7.4/modules/iwutil/h/IwFibre.h'
p1494
(lp1495
I1
ag1443
asS'e:/program files (x86)/marmelade/7.4/modules/iwutil/h/IwFile.h'
p1496
(lp1497
I1
ag1443
asS'e:/program files (x86)/marmelade/7.4/modules/iwutil/h/IwCopyingPtr.h'
p1498
(lp1499
I1
ag1443
asS'e:/program files (x86)/marmelade/7.4/modules/iwutil/h/IwUtil.h'
p1500
(lp1501
I1
ag1443
asS'e:/program files (x86)/marmelade/7.4/modules/iwutil/docs/iwutil.config.txt'
p1502
(lp1503
I1
ag1443
asS'e:/program files (x86)/marmelade/7.4/modules/iwutil/h/IwOptimiseSpeed.h'
p1504
(lp1505
I1
ag1443
asS'e:/program files (x86)/marmelade/7.4/modules/iwutil/h/IwResource.h'
p1506
(lp1507
I1
ag1443
asS'e:/program files (x86)/marmelade/7.4/modules/iwutil/h/IwManaged.h'
p1508
(lp1509
I1
ag1443
asS'e:/program files (x86)/marmelade/7.4/modules/iwutil/h/IwAutoFile.h'
p1510
(lp1511
I1
ag1443
asS'e:/program files (x86)/marmelade/7.4/modules/iwutil/h/IwTextParser.h'
p1512
(lp1513
I1
ag1443
asS'e:/program files (x86)/marmelade/7.4/modules/iwutil/h/IwTextParseable.h'
p1514
(lp1515
I1
ag1443
asS'e:/program files (x86)/marmelade/7.4/modules/iwutil/h/IwManagedList.h'
p1516
(lp1517
I1
ag1443
asS'e:/program files (x86)/marmelade/7.4/modules/iwutil/iwutil.mkf'
p1518
(lp1519
I1
a(dp1520
asS'e:/program files (x86)/marmelade/7.4/modules/iwutil/h/IwTypes.h'
p1521
(lp1522
I1
ag1443
asS'e:/program files (x86)/marmelade/7.4/modules/iwutil/h/IwRuntime.h'
p1523
(lp1524
I1
ag1443
asS'e:/program files (x86)/marmelade/7.4/modules/iwutil/h/IwRandom.h'
p1525
(lp1526
I1
ag1443
asS'e:/program files (x86)/marmelade/7.4/modules/iwutil/h/IwUncopyable.h'
p1527
(lp1528
I1
ag1443
asS'e:/program files (x86)/marmelade/7.4/modules/iwutil/h/IwProfileMenu.h'
p1529
(lp1530
I1
ag1443
asS'e:/program files (x86)/marmelade/7.4/modules/iwutil/h/IwKeymap.h'
p1531
(lp1532
I1
ag1443
asS'e:/program files (x86)/marmelade/7.4/modules/iwutil/h/IwImageHelper.h'
p1533
(lp1534
I1
ag1443
asS'e:/program files (x86)/marmelade/7.4/modules/iwutil/h/IwPath.h'
p1535
(lp1536
I1
ag1443
asS'e:/program files (x86)/marmelade/7.4/modules/iwutil/h/IwVariableBitField.h'
p1537
(lp1538
I1
ag1443
asS'e:/program files (x86)/marmelade/7.4/modules/iwutil/h/IwCore.h'
p1539
(lp1540
I1
ag1443
asS'e:/program files (x86)/marmelade/7.4/modules/iwutil/h/IwMemBucketHelpers.h'
p1541
(lp1542
I1
ag1443
asssS'(zlib)'
p1543
(dp1544
g1047
(dp1545
S'e:/program files (x86)/marmelade/7.4/modules/third_party/zlib/h/zconf.h'
p1546
(lp1547
I1
a(dp1548
asS'e:/program files (x86)/marmelade/7.4/modules/third_party/zlib/h/zlib.h'
p1549
(lp1550
I1
ag1548
assS'e:/program files (x86)/marmelade/7.4/modules/third_party/zlib/zlib.mkf'
p1551
(lp1552
I1
a(dp1553
assS'(iwtween)'
p1554
(dp1555
S'e:/program files (x86)/marmelade/7.4/modules/iwtween/h/IwTween.h'
p1556
(lp1557
I1
a(dp1558
asS'e:/program files (x86)/marmelade/7.4/modules/iwtween/source/IwTween.cpp'
p1559
(lp1560
I1
ag1558
asS'e:/program files (x86)/marmelade/7.4/modules/iwtween/iwtween.mkf'
p1561
(lp1562
I1
a(dp1563
assS'(s3e-default)'
p1564
(dp1565
S'e:/program files (x86)/marmelade/7.4/s3e/s3e-default.mkf'
p1566
(lp1567
I1
a(dp1568
asssS'files'
p1569
(dp1570
S'IwGxFontPreparedData.h'
p1571
g309
(cmkb_main
File
p1572
g311
Ntp1573
Rp1574
(dp1575
S'flags'
p1576
g1257
sS'group'
p1577
(lp1578
S"'Marmalade Studio'"
p1579
ag1253
asg335
g1255
sbsS'iterator'
p1580
g309
(g1572
g311
Ntp1581
Rp1582
(dp1583
g1576
(dp1584
sg1577
(lp1585
S"'Marmalade System (S3E)'"
p1586
aS'stdc headers'
p1587
aS'c++'
p1588
asg335
S'e:/program files (x86)/marmelade/7.4/s3e/h/std/c++/iterator'
p1589
sbsS'IwGL.h'
p1590
g309
(g1572
g311
Ntp1591
Rp1592
(dp1593
g1576
g1236
sg1577
(lp1594
S"'Marmalade Studio'"
p1595
ag1229
asg335
g1234
sbsS's3e.h'
p1596
g309
(g1572
g311
Ntp1597
Rp1598
(dp1599
g1576
g1584
sg1577
(lp1600
g1586
asg335
S'e:/program files (x86)/marmelade/7.4/s3e/h/s3e.h'
p1601
sbsS'errno.h'
p1602
g309
(g1572
g311
Ntp1603
Rp1604
(dp1605
g1576
g1584
sg1577
(lp1606
g1586
aS'stdc headers'
p1607
asg335
S'e:/program files (x86)/marmelade/7.4/s3e/h/std/errno.h'
p1608
sbsS'IwSingleton.h'
p1609
g309
(g1572
g311
Ntp1610
Rp1611
(dp1612
g1576
g1443
sg1577
(lp1613
S"'Marmalade Studio'"
p1614
ag1439
asg335
g1486
sbsS'dlfcn.h'
p1615
g309
(g1572
g311
Ntp1616
Rp1617
(dp1618
g1576
g1584
sg1577
g1606
sg335
S'e:/program files (x86)/marmelade/7.4/s3e/h/std/dlfcn.h'
p1619
sbsS'IwSoundWAV.cpp'
p1620
g309
(g1572
g311
Ntp1621
Rp1622
(dp1623
g1576
g1109
sg1577
(lp1624
g1102
asg335
g1152
sbsS'sched.h'
p1625
g309
(g1572
g311
Ntp1626
Rp1627
(dp1628
g1576
g1584
sg1577
g1606
sg335
S'e:/program files (x86)/marmelade/7.4/s3e/h/std/sched.h'
p1629
sbsS'IwSoundPCM.h'
p1630
g309
(g1572
g311
Ntp1631
Rp1632
(dp1633
g1576
g1109
sg1577
g1624
sg335
g1146
sbsS'IwGeomFMat2D.h'
p1634
g309
(g1572
g311
Ntp1635
Rp1636
(dp1637
g1576
g1279
sg1577
(lp1638
S"'Marmalade Studio'"
p1639
ag1275
asg335
g1332
sbsS'cassert'
p1640
g309
(g1572
g311
Ntp1641
Rp1642
(dp1643
g1576
g1584
sg1577
g1585
sg335
S'e:/program files (x86)/marmelade/7.4/s3e/h/std/c++/cassert'
p1644
sbsS'grp.h'
p1645
g309
(g1572
g311
Ntp1646
Rp1647
(dp1648
g1576
g1584
sg1577
g1606
sg335
S'e:/program files (x86)/marmelade/7.4/s3e/h/std/grp.h'
p1649
sbsS'list'
p1650
g309
(g1572
g311
Ntp1651
Rp1652
(dp1653
g1576
g1584
sg1577
g1585
sg335
S'e:/program files (x86)/marmelade/7.4/s3e/h/std/c++/list'
p1654
sbsS'IwSoundSpec.cpp'
p1655
g309
(g1572
g311
Ntp1656
Rp1657
(dp1658
g1576
g1109
sg1577
g1624
sg335
g1132
sbsS'IwGeomMat.h.tpl'
p1659
g309
(g1572
g311
Ntp1660
Rp1661
(dp1662
g1576
g1279
sg1577
g1638
sg335
g1322
sbsS'istream'
p1663
g309
(g1572
g311
Ntp1664
Rp1665
(dp1666
g1576
g1584
sg1577
g1585
sg335
S'e:/program files (x86)/marmelade/7.4/s3e/h/std/c++/istream'
p1667
sbsS'jpeglib.h'
p1668
g309
(g1572
g311
Ntp1669
Rp1670
(dp1671
g1576
g1065
sg1577
(lp1672
g1057
ag1047
asg335
g1074
sbsS'iw2d_public.defines.txt'
p1673
g309
(g1572
g311
Ntp1674
Rp1675
(dp1676
g1576
g1245
sg1577
(lp1677
S"'Marmalade Studio'"
p1678
ag1241
asg335
g1243
sbsS'iostream.h'
p1679
g309
(g1572
g311
Ntp1680
Rp1681
(dp1682
g1576
g1584
sg1577
g1585
sg335
S'e:/program files (x86)/marmelade/7.4/s3e/h/std/c++/iostream.h'
p1683
sbsS'Mastermind.h'
p1684
g309
(g1572
g311
Ntp1685
Rp1686
(dp1687
g1576
g1158
sg1577
(lp1688
g1154
asg335
g1183
sbsS'IwSoundADPCM.h'
p1689
g309
(g1572
g311
Ntp1690
Rp1691
(dp1692
g1576
g1109
sg1577
g1624
sg335
g1107
sbsS'string'
p1693
g309
(g1572
g311
Ntp1694
Rp1695
(dp1696
g1576
g1584
sg1577
g1585
sg335
S'e:/program files (x86)/marmelade/7.4/s3e/h/std/c++/string'
p1697
sbsS'IwMemory.h'
p1698
g309
(g1572
g311
Ntp1699
Rp1700
(dp1701
g1576
g1443
sg1577
g1613
sg335
g1484
sbsS'IwGeomPlane.h'
p1702
g309
(g1572
g311
Ntp1703
Rp1704
(dp1705
g1576
g1279
sg1577
g1638
sg335
g1280
sbsS'iw2d.config.txt'
p1706
g309
(g1572
g311
Ntp1707
Rp1708
(dp1709
g1576
g1245
sg1577
g1677
sg335
g1246
sbsS'iomanip'
p1710
g309
(g1572
g311
Ntp1711
Rp1712
(dp1713
g1576
g1584
sg1577
g1585
sg335
S'e:/program files (x86)/marmelade/7.4/s3e/h/std/c++/iomanip'
p1714
sbsS'iwgeom.mkf'
p1715
g309
(g1572
g311
Ntp1716
Rp1717
(dp1718
g1576
g1348
sg1577
g1638
sg335
g1346
sbsS'IwGxError.h'
p1719
g309
(g1572
g311
Ntp1720
Rp1721
(dp1722
g1576
g1379
sg1577
(lp1723
S"'Marmalade Studio'"
p1724
ag1375
asg335
g1390
sbsS'IwGeom.h'
p1725
g309
(g1572
g311
Ntp1726
Rp1727
(dp1728
g1576
g1279
sg1577
g1638
sg335
g1306
sbsS'IwGeomVec4.h'
p1729
g309
(g1572
g311
Ntp1730
Rp1731
(dp1732
g1576
g1279
sg1577
g1638
sg335
g1310
sbsS'dir.h'
p1733
g309
(g1572
g311
Ntp1734
Rp1735
(dp1736
g1576
g1584
sg1577
(lp1737
g1586
aS'stdc headers'
p1738
aS'sys'
p1739
asg335
S'e:/program files (x86)/marmelade/7.4/s3e/h/std/sys/dir.h'
p1740
sbsS'locale.h'
p1741
g309
(g1572
g311
Ntp1742
Rp1743
(dp1744
g1576
g1584
sg1577
g1606
sg335
S'e:/program files (x86)/marmelade/7.4/s3e/h/std/locale.h'
p1745
sbsS'vector'
p1746
g309
(g1572
g311
Ntp1747
Rp1748
(dp1749
g1576
g1584
sg1577
g1585
sg335
S'e:/program files (x86)/marmelade/7.4/s3e/h/std/c++/vector'
p1750
sbsS'IwManaged.h'
p1751
g309
(g1572
g311
Ntp1752
Rp1753
(dp1754
g1576
g1443
sg1577
g1613
sg335
g1508
sbsS's3eCompass.h'
p1755
g309
(g1572
g311
Ntp1756
Rp1757
(dp1758
g1576
g1584
sg1577
g1600
sg335
S'e:/program files (x86)/marmelade/7.4/s3e/h/s3eCompass.h'
p1759
sbsS'cderror.h'
p1760
g309
(g1572
g311
Ntp1761
Rp1762
(dp1763
g1576
g1065
sg1577
g1672
sg335
g1063
sbsS'climits'
p1764
g309
(g1572
g311
Ntp1765
Rp1766
(dp1767
g1576
g1584
sg1577
g1585
sg335
S'e:/program files (x86)/marmelade/7.4/s3e/h/std/c++/climits'
p1768
sbsS'ipc.h'
p1769
g309
(g1572
g311
Ntp1770
Rp1771
(dp1772
g1576
g1584
sg1577
g1737
sg335
S'e:/program files (x86)/marmelade/7.4/s3e/h/std/sys/ipc.h'
p1773
sbsS'jversion.h'
p1774
g309
(g1572
g311
Ntp1775
Rp1776
(dp1777
g1576
g1065
sg1577
g1672
sg335
g1066
sbsS'fnmatch.h'
p1778
g309
(g1572
g311
Ntp1779
Rp1780
(dp1781
g1576
g1584
sg1577
g1606
sg335
S'e:/program files (x86)/marmelade/7.4/s3e/h/std/fnmatch.h'
p1782
sbsS'IwGxState.h'
p1783
g309
(g1572
g311
Ntp1784
Rp1785
(dp1786
g1576
g1379
sg1577
g1723
sg335
g1388
sbsS's3eAudio.h'
p1787
g309
(g1572
g311
Ntp1788
Rp1789
(dp1790
g1576
g1584
sg1577
g1600
sg335
S'e:/program files (x86)/marmelade/7.4/s3e/h/s3eAudio.h'
p1791
sbsS's3eSurface.h'
p1792
g309
(g1572
g311
Ntp1793
Rp1794
(dp1795
g1576
g1584
sg1577
g1600
sg335
S'e:/program files (x86)/marmelade/7.4/s3e/h/s3eSurface.h'
p1796
sbsS'new'
p1797
g309
(g1572
g311
Ntp1798
Rp1799
(dp1800
g1576
g1584
sg1577
g1585
sg335
S'e:/program files (x86)/marmelade/7.4/s3e/h/std/c++/new'
p1801
sbsS's3eWindow.h'
p1802
g309
(g1572
g311
Ntp1803
Rp1804
(dp1805
g1576
g1584
sg1577
(lp1806
g1586
aS'Extensions'
p1807
asg335
S'e:/program files (x86)/marmelade/7.4/s3e/h/ext/s3eWindow.h'
p1808
sbsS'IwBuffer.h'
p1809
g309
(g1572
g311
Ntp1810
Rp1811
(dp1812
g1576
g1443
sg1577
g1613
sg335
g1448
sbsS'stdio_streambuf'
p1813
g309
(g1572
g311
Ntp1814
Rp1815
(dp1816
g1576
g1584
sg1577
g1585
sg335
S'e:/program files (x86)/marmelade/7.4/s3e/h/std/c++/stdio_streambuf'
p1817
sbsS'IwGeomQuat.h.tpl'
p1818
g309
(g1572
g311
Ntp1819
Rp1820
(dp1821
g1576
g1279
sg1577
g1638
sg335
g1292
sbsS's3eOSExec.h'
p1822
g309
(g1572
g311
Ntp1823
Rp1824
(dp1825
g1576
g1584
sg1577
g1806
sg335
S'e:/program files (x86)/marmelade/7.4/s3e/h/ext/s3eOSExec.h'
p1826
sbsS'IwGxTransformSW.h'
p1827
g309
(g1572
g311
Ntp1828
Rp1829
(dp1830
g1576
g1379
sg1577
g1723
sg335
g1382
sbsS'IwGxMetrics.h'
p1831
g309
(g1572
g311
Ntp1832
Rp1833
(dp1834
g1576
g1379
sg1577
g1723
sg335
g1400
sbsS'iwgxfont.config.txt'
p1835
g309
(g1572
g311
Ntp1836
Rp1837
(dp1838
g1576
g1257
sg1577
g1578
sg335
g1260
sbsS'gl2platform.h'
p1839
g309
(g1572
g311
Ntp1840
Rp1841
(dp1842
g1576
g1584
sg1577
(lp1843
g1586
aS'GL'
p1844
aS'GLES 2.0'
p1845
asg335
S'e:/program files (x86)/marmelade/7.4/s3e/h/GLES2/gl2platform.h'
p1846
sbsS'IwResManagerClass.h'
p1847
g309
(g1572
g311
Ntp1848
Rp1849
(dp1850
g1576
g1355
sg1577
(lp1851
g1215
ag1351
asg335
g1356
sbsS'queue'
p1852
g309
(g1572
g311
Ntp1853
Rp1854
(dp1855
g1576
g1584
sg1577
g1585
sg335
S'e:/program files (x86)/marmelade/7.4/s3e/h/std/c++/queue'
p1856
sbsS'time_1.h'
p1857
g309
(g1572
g311
Ntp1858
Rp1859
(dp1860
g1576
g1584
sg1577
g1737
sg335
S'e:/program files (x86)/marmelade/7.4/s3e/h/std/sys/time.h'
p1861
sbsS'Iw2D.h'
p1862
g309
(g1572
g311
Ntp1863
Rp1864
(dp1865
g1576
g1245
sg1577
g1677
sg335
g1248
sbsS'Input.cpp'
p1866
g309
(g1572
g311
Ntp1867
Rp1868
(dp1869
g1576
g1158
sg1577
g1688
sg335
g1165
sbsS'IwGeomVec2.h'
p1870
g309
(g1572
g311
Ntp1871
Rp1872
(dp1873
g1576
g1279
sg1577
g1638
sg335
g1282
sbsS'sendfile.h'
p1874
g309
(g1572
g311
Ntp1875
Rp1876
(dp1877
g1576
g1584
sg1577
g1737
sg335
S'e:/program files (x86)/marmelade/7.4/s3e/h/std/sys/sendfile.h'
p1878
sbsS'malloc.h'
p1879
g309
(g1572
g311
Ntp1880
Rp1881
(dp1882
g1576
g1584
sg1577
g1606
sg335
S'e:/program files (x86)/marmelade/7.4/s3e/h/std/malloc.h'
p1883
sbsS'stdarg.h'
p1884
g309
(g1572
g311
Ntp1885
Rp1886
(dp1887
g1576
g1584
sg1577
g1606
sg335
S'e:/program files (x86)/marmelade/7.4/s3e/h/std/stdarg.h'
p1888
sbsS'IwGeomCore.h'
p1889
g309
(g1572
g311
Ntp1890
Rp1891
(dp1892
g1576
g1279
sg1577
g1638
sg335
g1284
sbsS'Iw2DSceneGraph.h'
p1893
g309
(g1572
g311
Ntp1894
Rp1895
(dp1896
g1576
g1221
sg1577
(lp1897
S"'Marmalade Studio'"
p1898
ag1217
asg335
g1224
sbsS'endian.h'
p1899
g309
(g1572
g311
Ntp1900
Rp1901
(dp1902
g1576
g1584
sg1577
g1606
sg335
S'e:/program files (x86)/marmelade/7.4/s3e/h/std/endian.h'
p1903
sbsS'gl3ext.h'
p1904
g309
(g1572
g311
Ntp1905
Rp1906
(dp1907
g1576
g1584
sg1577
(lp1908
g1586
aS'GL'
p1909
aS'GLES 3.0'
p1910
asg335
S'e:/program files (x86)/marmelade/7.4/s3e/h/GLES3/gl3ext.h'
p1911
sbsS'glob.h'
p1912
g309
(g1572
g311
Ntp1913
Rp1914
(dp1915
g1576
g1584
sg1577
g1606
sg335
S'e:/program files (x86)/marmelade/7.4/s3e/h/std/glob.h'
p1916
sbsS'fstream'
p1917
g309
(g1572
g311
Ntp1918
Rp1919
(dp1920
g1576
g1584
sg1577
g1585
sg335
S'e:/program files (x86)/marmelade/7.4/s3e/h/std/c++/fstream'
p1921
sbsS's3eCamera.h'
p1922
g309
(g1572
g311
Ntp1923
Rp1924
(dp1925
g1576
g1584
sg1577
g1600
sg335
S'e:/program files (x86)/marmelade/7.4/s3e/h/s3eCamera.h'
p1926
sbsS'jconfig.h'
p1927
g309
(g1572
g311
Ntp1928
Rp1929
(dp1930
g1576
g1065
sg1577
g1672
sg335
g1082
sbsS'memory'
p1931
g309
(g1572
g311
Ntp1932
Rp1933
(dp1934
g1576
g1584
sg1577
g1585
sg335
S'e:/program files (x86)/marmelade/7.4/s3e/h/std/c++/memory'
p1935
sbsS'egl.h'
p1936
g309
(g1572
g311
Ntp1937
Rp1938
(dp1939
g1576
g1584
sg1577
(lp1940
g1586
aS'GL'
p1941
aS'EGL'
p1942
asg335
S'e:/program files (x86)/marmelade/7.4/s3e/h/EGL/egl.h'
p1943
sbsS'IwClip.inl'
p1944
g309
(g1572
g311
Ntp1945
Rp1946
(dp1947
g1576
g1379
sg1577
g1723
sg335
g1402
sbsS'IwMemManagerDL.h'
p1948
g309
(g1572
g311
Ntp1949
Rp1950
(dp1951
g1576
g1443
sg1577
g1613
sg335
g1474
sbsS'deque'
p1952
g309
(g1572
g311
Ntp1953
Rp1954
(dp1955
g1576
g1584
sg1577
g1585
sg335
S'e:/program files (x86)/marmelade/7.4/s3e/h/std/c++/deque'
p1956
sbsS'IwString.h'
p1957
g309
(g1572
g311
Ntp1958
Rp1959
(dp1960
g1576
g1443
sg1577
g1613
sg335
g1476
sbsS'cwchar'
p1961
g309
(g1572
g311
Ntp1962
Rp1963
(dp1964
g1576
g1584
sg1577
g1585
sg335
S'e:/program files (x86)/marmelade/7.4/s3e/h/std/c++/cwchar'
p1965
sbsS'iwutil.mkf'
p1966
g309
(g1572
g311
Ntp1967
Rp1968
(dp1969
g1576
g1520
sg1577
g1613
sg335
g1518
sbsS'csignal'
p1970
g309
(g1572
g311
Ntp1971
Rp1972
(dp1973
g1576
g1584
sg1577
g1585
sg335
S'e:/program files (x86)/marmelade/7.4/s3e/h/std/c++/csignal'
p1974
sbsS'pthread_types.h'
p1975
g309
(g1572
g311
Ntp1976
Rp1977
(dp1978
g1576
g1584
sg1577
g1606
sg335
S'e:/program files (x86)/marmelade/7.4/s3e/h/std/pthread_types.h'
p1979
sbsS'MainMenu.h'
p1980
g309
(g1572
g311
Ntp1981
Rp1982
(dp1983
g1576
g1158
sg1577
g1688
sg335
g1173
sbsS'pthread_alloc'
p1984
g309
(g1572
g311
Ntp1985
Rp1986
(dp1987
g1576
g1584
sg1577
g1585
sg335
S'e:/program files (x86)/marmelade/7.4/s3e/h/std/c++/pthread_alloc'
p1988
sbsS'getopt.h'
p1989
g309
(g1572
g311
Ntp1990
Rp1991
(dp1992
g1576
g1584
sg1577
g1606
sg335
S'e:/program files (x86)/marmelade/7.4/s3e/h/std/getopt.h'
p1993
sbsS'IwOptimiseARM.h'
p1994
g309
(g1572
g311
Ntp1995
Rp1996
(dp1997
g1576
g1443
sg1577
g1613
sg335
g1490
sbsS'times.h'
p1998
g309
(g1572
g311
Ntp1999
Rp2000
(dp2001
g1576
g1584
sg1577
g1737
sg335
S'e:/program files (x86)/marmelade/7.4/s3e/h/std/sys/times.h'
p2002
sbsS'IwGeomFSphere.h'
p2003
g309
(g1572
g311
Ntp2004
Rp2005
(dp2006
g1576
g1279
sg1577
g1638
sg335
g1304
sbsS'IwTypes.h'
p2007
g309
(g1572
g311
Ntp2008
Rp2009
(dp2010
g1576
g1443
sg1577
g1613
sg335
g1521
sbsS'unistd.h'
p2011
g309
(g1572
g311
Ntp2012
Rp2013
(dp2014
g1576
g1584
sg1577
g1606
sg335
S'e:/program files (x86)/marmelade/7.4/s3e/h/std/unistd.h'
p2015
sbsS'Input.h'
p2016
g309
(g1572
g311
Ntp2017
Rp2018
(dp2019
g1576
g1158
sg1577
g1688
sg335
g1197
sbsS's3eCompression.h'
p2020
g309
(g1572
g311
Ntp2021
Rp2022
(dp2023
g1576
g1584
sg1577
g1600
sg335
S'e:/program files (x86)/marmelade/7.4/s3e/h/s3eCompression.h'
p2024
sbsS'langinfo.h'
p2025
g309
(g1572
g311
Ntp2026
Rp2027
(dp2028
g1576
g1584
sg1577
g1606
sg335
S'e:/program files (x86)/marmelade/7.4/s3e/h/std/langinfo.h'
p2029
sbsS's3edebugHeap.h'
p2030
g309
(g1572
g311
Ntp2031
Rp2032
(dp2033
g1576
g1584
sg1577
g1806
sg335
S'e:/program files (x86)/marmelade/7.4/s3e/h/ext/s3edebugHeap.h'
p2034
sbsS'AirplayVersion.h'
p2035
g309
(g1572
g311
Ntp2036
Rp2037
(dp2038
g1576
g1584
sg1577
g1600
sg335
S'e:/program files (x86)/marmelade/7.4/s3e/h/AirplayVersion.h'
p2039
sbsS'gl2extimg.h'
p2040
g309
(g1572
g311
Ntp2041
Rp2042
(dp2043
g1576
g1584
sg1577
g1843
sg335
S'e:/program files (x86)/marmelade/7.4/s3e/h/GLES2/gl2extimg.h'
p2044
sbsS'Button.h'
p2045
g309
(g1572
g311
Ntp2046
Rp2047
(dp2048
g1576
g1158
sg1577
g1688
sg335
g1159
sbsS'app.config.txt'
p2049
g309
(g1572
g311
Ntp2050
Rp2051
(dp2052
g1576
(dp2053
sg1577
g4
sg335
S'e:/Documents/GitHub/Mastermind Remake/Mastermind/data/app.config.txt'
p2054
sbsS'IwGeomSqrt.h'
p2055
g309
(g1572
g311
Ntp2056
Rp2057
(dp2058
g1576
g1279
sg1577
g1638
sg335
g1344
sbsS'tiniconv_int.h'
p2059
g309
(g1572
g311
Ntp2060
Rp2061
(dp2062
g1576
g1099
sg1577
(lp2063
g1092
asg335
g1097
sbsS'syslog.h'
p2064
g309
(g1572
g311
Ntp2065
Rp2066
(dp2067
g1576
g1584
sg1577
g1606
sg335
S'e:/program files (x86)/marmelade/7.4/s3e/h/std/syslog.h'
p2068
sbsS'IwGxFontTypes.h'
p2069
g309
(g1572
g311
Ntp2070
Rp2071
(dp2072
g1576
g1257
sg1577
g1578
sg335
g1258
sbsS'IwGeomFIntersect.h'
p2073
g309
(g1572
g311
Ntp2074
Rp2075
(dp2076
g1576
g1279
sg1577
g1638
sg335
g1290
sbsS'hash_map'
p2077
g309
(g1572
g311
Ntp2078
Rp2079
(dp2080
g1576
g1584
sg1577
g1585
sg335
S'e:/program files (x86)/marmelade/7.4/s3e/h/std/c++/hash_map'
p2081
sbsS's3e.mkf'
p2082
g309
(g1572
g311
Ntp2083
Rp2084
(dp2085
g1576
(dp2086
sg1577
g1600
sg335
S'e:/program files (x86)/marmelade/7.4/s3e/s3e.mkf'
p2087
sbsS'IwGeomMat2D.h.tpl'
p2088
g309
(g1572
g311
Ntp2089
Rp2090
(dp2091
g1576
g1279
sg1577
g1638
sg335
g1342
sbsS's3eOSReadString.h'
p2092
g309
(g1572
g311
Ntp2093
Rp2094
(dp2095
g1576
g1584
sg1577
g1806
sg335
S'e:/program files (x86)/marmelade/7.4/s3e/h/ext/s3eOSReadString.h'
p2096
sbsS'IwSound.h'
p2097
g309
(g1572
g311
Ntp2098
Rp2099
(dp2100
g1576
g1109
sg1577
g1624
sg335
g1114
sbsS'map'
p2101
g309
(g1572
g311
Ntp2102
Rp2103
(dp2104
g1576
g1584
sg1577
g1585
sg335
S'e:/program files (x86)/marmelade/7.4/s3e/h/std/c++/map'
p2105
sbsS'iwtween.mkf'
p2106
g309
(g1572
g311
Ntp2107
Rp2108
(dp2109
g1576
g1563
sg1577
(lp2110
g1554
asg335
g1561
sbsS'IwOptimiseSpeed.h'
p2111
g309
(g1572
g311
Ntp2112
Rp2113
(dp2114
g1576
g1443
sg1577
g1613
sg335
g1504
sbsS'ostream'
p2115
g309
(g1572
g311
Ntp2116
Rp2117
(dp2118
g1576
g1584
sg1577
g1585
sg335
S'e:/program files (x86)/marmelade/7.4/s3e/h/std/c++/ostream'
p2119
sbsS'msl_string.h'
p2120
g309
(g1572
g311
Ntp2121
Rp2122
(dp2123
g1576
g1584
sg1577
g1585
sg335
S'e:/program files (x86)/marmelade/7.4/s3e/h/std/c++/msl_string.h'
p2124
sbsS'select.h'
p2125
g309
(g1572
g311
Ntp2126
Rp2127
(dp2128
g1576
g1584
sg1577
g1737
sg335
S'e:/program files (x86)/marmelade/7.4/s3e/h/std/sys/select.h'
p2129
sbsS'zlib.mkf'
p2130
g309
(g1572
g311
Ntp2131
Rp2132
(dp2133
g1576
g1553
sg1577
(lp2134
g1543
asg335
g1551
sbsS'signal.h'
p2135
g309
(g1572
g311
Ntp2136
Rp2137
(dp2138
g1576
g1584
sg1577
g1606
sg335
S'e:/program files (x86)/marmelade/7.4/s3e/h/std/signal.h'
p2139
sbsS'sigcontext.h'
p2140
g309
(g1572
g311
Ntp2141
Rp2142
(dp2143
g1576
g1584
sg1577
g1606
sg335
S'e:/program files (x86)/marmelade/7.4/s3e/h/std/sigcontext.h'
p2144
sbsS'libpng.mkf'
p2145
g309
(g1572
g311
Ntp2146
Rp2147
(dp2148
g1576
g1056
sg1577
(lp2149
g1045
asg335
g1054
sbsS's3eClipboard.h'
p2150
g309
(g1572
g311
Ntp2151
Rp2152
(dp2153
g1576
g1584
sg1577
g1600
sg335
S'e:/program files (x86)/marmelade/7.4/s3e/h/s3eClipboard.h'
p2154
sbsS'IwGxFuncTable.h'
p2155
g309
(g1572
g311
Ntp2156
Rp2157
(dp2158
g1576
g1379
sg1577
g1723
sg335
g1419
sbsS'IwResHandlerGROUP.h'
p2159
g309
(g1572
g311
Ntp2160
Rp2161
(dp2162
g1576
g1355
sg1577
g1851
sg335
g1358
sbsS's3eDebug.h'
p2163
g309
(g1572
g311
Ntp2164
Rp2165
(dp2166
g1576
g1584
sg1577
g1600
sg335
S'e:/program files (x86)/marmelade/7.4/s3e/h/s3eDebug.h'
p2167
sbsS'socket.h'
p2168
g309
(g1572
g311
Ntp2169
Rp2170
(dp2171
g1576
g1584
sg1577
g1737
sg335
S'e:/program files (x86)/marmelade/7.4/s3e/h/std/sys/socket.h'
p2172
sbsS'glext.h'
p2173
g309
(g1572
g311
Ntp2174
Rp2175
(dp2176
g1576
g1584
sg1577
(lp2177
g1586
aS'GL'
p2178
aS'GLES 1.x'
p2179
asg335
S'e:/program files (x86)/marmelade/7.4/s3e/h/GLES/glext.h'
p2180
sbsS'typeinfo.h'
p2181
g309
(g1572
g311
Ntp2182
Rp2183
(dp2184
g1576
g1584
sg1577
g1585
sg335
S'e:/program files (x86)/marmelade/7.4/s3e/h/std/c++/typeinfo.h'
p2185
sbsS'typeinfo'
p2186
g309
(g1572
g311
Ntp2187
Rp2188
(dp2189
g1576
g1584
sg1577
g1585
sg335
S'e:/program files (x86)/marmelade/7.4/s3e/h/std/c++/typeinfo'
p2190
sbsS'iwsound.config.txt'
p2191
g309
(g1572
g311
Ntp2192
Rp2193
(dp2194
g1576
g1109
sg1577
(lp2195
g1102
ag1126
asg335
g1128
sbsS'fstream.h'
p2196
g309
(g1572
g311
Ntp2197
Rp2198
(dp2199
g1576
g1584
sg1577
g1585
sg335
S'e:/program files (x86)/marmelade/7.4/s3e/h/std/c++/fstream.h'
p2200
sbsS's3ePointer.h'
p2201
g309
(g1572
g311
Ntp2202
Rp2203
(dp2204
g1576
g1584
sg1577
g1600
sg335
S'e:/program files (x86)/marmelade/7.4/s3e/h/s3ePointer.h'
p2205
sbsS'IwMemBucket.h'
p2206
g309
(g1572
g311
Ntp2207
Rp2208
(dp2209
g1576
g1443
sg1577
g1613
sg335
g1446
sbsS'PVRTexTool.h'
p2210
g309
(g1572
g311
Ntp2211
Rp2212
(dp2213
g1576
g1207
sg1577
(lp2214
g1199
ag1201
asg335
g1210
sbsS's3eGL.h'
p2215
g309
(g1572
g311
Ntp2216
Rp2217
(dp2218
g1576
g1584
sg1577
g1600
sg335
S'e:/program files (x86)/marmelade/7.4/s3e/h/s3eGL.h'
p2219
sbsS'Scene.h'
p2220
g309
(g1572
g311
Ntp2221
Rp2222
(dp2223
g1576
g1158
sg1577
g1688
sg335
g1177
sbsS'IwGeomFVec2.h'
p2224
g309
(g1572
g311
Ntp2225
Rp2226
(dp2227
g1576
g1279
sg1577
g1638
sg335
g1314
sbsS'IwGeomSVec4.h'
p2228
g309
(g1572
g311
Ntp2229
Rp2230
(dp2231
g1576
g1279
sg1577
g1638
sg335
g1294
sbsS'poll.h'
p2232
g309
(g1572
g311
Ntp2233
Rp2234
(dp2235
g1576
g1584
sg1577
g1606
sg335
S'e:/program files (x86)/marmelade/7.4/s3e/h/std/poll.h'
p2236
sbsS'IwMatAnim.h'
p2237
g309
(g1572
g311
Ntp2238
Rp2239
(dp2240
g1576
g1379
sg1577
g1723
sg335
g1408
sbsS'IwGeomFVec4.h'
p2241
g309
(g1572
g311
Ntp2242
Rp2243
(dp2244
g1576
g1279
sg1577
g1638
sg335
g1320
sbsS'IwGx.h'
p2245
g309
(g1572
g311
Ntp2246
Rp2247
(dp2248
g1576
g1379
sg1577
g1723
sg335
g1427
sbsS'valarray'
p2249
g309
(g1572
g311
Ntp2250
Rp2251
(dp2252
g1576
g1584
sg1577
g1585
sg335
S'e:/program files (x86)/marmelade/7.4/s3e/h/std/c++/valarray'
p2253
sbsS'iosfwd'
p2254
g309
(g1572
g311
Ntp2255
Rp2256
(dp2257
g1576
g1584
sg1577
g1585
sg335
S'e:/program files (x86)/marmelade/7.4/s3e/h/std/c++/iosfwd'
p2258
sbsS'gl2.h'
p2259
g309
(g1572
g311
Ntp2260
Rp2261
(dp2262
g1576
g1584
sg1577
g1843
sg335
S'e:/program files (x86)/marmelade/7.4/s3e/h/GLES2/gl2.h'
p2263
sbsS'jpegint.h'
p2264
g309
(g1572
g311
Ntp2265
Rp2266
(dp2267
g1576
g1065
sg1577
g1672
sg335
g1076
sbsS'stdiostream.h'
p2268
g309
(g1572
g311
Ntp2269
Rp2270
(dp2271
g1576
g1584
sg1577
g1585
sg335
S'e:/program files (x86)/marmelade/7.4/s3e/h/std/c++/stdiostream.h'
p2272
sbsS'mem.h'
p2273
g309
(g1572
g311
Ntp2274
Rp2275
(dp2276
g1576
g1584
sg1577
g1585
sg335
S'e:/program files (x86)/marmelade/7.4/s3e/h/std/c++/mem.h'
p2277
sbsS'jerror.h'
p2278
g309
(g1572
g311
Ntp2279
Rp2280
(dp2281
g1576
g1065
sg1577
g1672
sg335
g1088
sbsS'zconf.h'
p2282
g309
(g1572
g311
Ntp2283
Rp2284
(dp2285
g1576
g1548
sg1577
(lp2286
g1543
ag1047
asg335
g1546
sbsS's3e.config.txt'
p2287
g309
(g1572
g311
Ntp2288
Rp2289
(dp2290
g1576
g1584
sg1577
g1600
sg335
S'e:/program files (x86)/marmelade/7.4/s3e/s3e.config.txt'
p2291
sbsS'numeric'
p2292
g309
(g1572
g311
Ntp2293
Rp2294
(dp2295
g1576
g1584
sg1577
g1585
sg335
S'e:/program files (x86)/marmelade/7.4/s3e/h/std/c++/numeric'
p2296
sbsS'PauseMenu.cpp'
p2297
g309
(g1572
g311
Ntp2298
Rp2299
(dp2300
g1576
g1158
sg1577
g1688
sg335
g1181
sbsS'ioctl.h'
p2301
g309
(g1572
g311
Ntp2302
Rp2303
(dp2304
g1576
g1584
sg1577
g1737
sg335
S'e:/program files (x86)/marmelade/7.4/s3e/h/std/sys/ioctl.h'
p2305
sbsS'jdhuff.h'
p2306
g309
(g1572
g311
Ntp2307
Rp2308
(dp2309
g1576
g1065
sg1577
g1672
sg335
g1084
sbsS'IwResHandlerWAV.cpp'
p2310
g309
(g1572
g311
Ntp2311
Rp2312
(dp2313
g1576
g1109
sg1577
g1624
sg335
g1140
sbsS'un.h'
p2314
g309
(g1572
g311
Ntp2315
Rp2316
(dp2317
g1576
g1584
sg1577
g1737
sg335
S'e:/program files (x86)/marmelade/7.4/s3e/h/std/sys/un.h'
p2318
sbsS'IwImage.h'
p2319
g309
(g1572
g311
Ntp2320
Rp2321
(dp2322
g1576
g1443
sg1577
g1613
sg335
g1454
sbsS's3eImagePicker.h'
p2323
g309
(g1572
g311
Ntp2324
Rp2325
(dp2326
g1576
g1584
sg1577
g1806
sg335
S'e:/program files (x86)/marmelade/7.4/s3e/h/ext/s3eImagePicker.h'
p2327
sbsS'IwResManager.h'
p2328
g309
(g1572
g311
Ntp2329
Rp2330
(dp2331
g1576
g1355
sg1577
g1851
sg335
g1365
sbsS'stdlib.h'
p2332
g309
(g1572
g311
Ntp2333
Rp2334
(dp2335
g1576
g1584
sg1577
g1606
sg335
S'e:/program files (x86)/marmelade/7.4/s3e/h/std/stdlib.h'
p2336
sbsS'IwCopyingPtr.h'
p2337
g309
(g1572
g311
Ntp2338
Rp2339
(dp2340
g1576
g1443
sg1577
g1613
sg335
g1498
sbsS'iostream'
p2341
g309
(g1572
g311
Ntp2342
Rp2343
(dp2344
g1576
g1584
sg1577
g1585
sg335
S'e:/program files (x86)/marmelade/7.4/s3e/h/std/c++/iostream'
p2345
sbsS'png.h'
p2346
g309
(g1572
g311
Ntp2347
Rp2348
(dp2349
g1576
g1051
sg1577
(lp2350
g1045
ag1047
asg335
g1049
sbsS'stddef.h'
p2351
g309
(g1572
g311
Ntp2352
Rp2353
(dp2354
g1576
g1584
sg1577
g1606
sg335
S'e:/program files (x86)/marmelade/7.4/s3e/h/std/stddef.h'
p2355
sbsS'setjmp_win32.h'
p2356
g309
(g1572
g311
Ntp2357
Rp2358
(dp2359
g1576
g1584
sg1577
g1606
sg335
S'e:/program files (x86)/marmelade/7.4/s3e/h/std/setjmp_win32.h'
p2360
sbsS'IwGxPrint.h'
p2361
g309
(g1572
g311
Ntp2362
Rp2363
(dp2364
g1576
g1379
sg1577
g1723
sg335
g1417
sbsS'IwClassFactory.h'
p2365
g309
(g1572
g311
Ntp2366
Rp2367
(dp2368
g1576
g1443
sg1577
g1613
sg335
g1444
sbsS'streambuf.h'
p2369
g309
(g1572
g311
Ntp2370
Rp2371
(dp2372
g1576
g1584
sg1577
g1585
sg335
S'e:/program files (x86)/marmelade/7.4/s3e/h/std/c++/streambuf.h'
p2373
sbsS'IwGeomFPlane.h'
p2374
g309
(g1572
g311
Ntp2375
Rp2376
(dp2377
g1576
g1279
sg1577
g1638
sg335
g1288
sbsS'wchar.h'
p2378
g309
(g1572
g311
Ntp2379
Rp2380
(dp2381
g1576
g1584
sg1577
g1606
sg335
S'e:/program files (x86)/marmelade/7.4/s3e/h/std/wchar.h'
p2382
sbsS's3eCameraCapture.h'
p2383
g309
(g1572
g311
Ntp2384
Rp2385
(dp2386
g1576
g1584
sg1577
g1806
sg335
S'e:/program files (x86)/marmelade/7.4/s3e/h/ext/s3eCameraCapture.h'
p2387
sbsS'eglext.h'
p2388
g309
(g1572
g311
Ntp2389
Rp2390
(dp2391
g1576
g1584
sg1577
g1940
sg335
S'e:/program files (x86)/marmelade/7.4/s3e/h/EGL/eglext.h'
p2392
sbsS'IwResHandlerImage.h'
p2393
g309
(g1572
g311
Ntp2394
Rp2395
(dp2396
g1576
g1355
sg1577
g1851
sg335
g1353
sbsS'strstream.h'
p2397
g309
(g1572
g311
Ntp2398
Rp2399
(dp2400
g1576
g1584
sg1577
g1585
sg335
S'e:/program files (x86)/marmelade/7.4/s3e/h/std/c++/strstream.h'
p2401
sbsS'tiniconv.h'
p2402
g309
(g1572
g311
Ntp2403
Rp2404
(dp2405
g1576
g1099
sg1577
g2063
sg335
g1100
sbsS'IwGLExt.h'
p2406
g309
(g1572
g311
Ntp2407
Rp2408
(dp2409
g1576
g1236
sg1577
g1594
sg335
g1239
sbsS'app.icf'
p2410
g309
(g1572
g311
Ntp2411
Rp2412
(dp2413
g1576
(dp2414
sg1577
g4
sg335
S'e:/Documents/GitHub/Mastermind Remake/Mastermind/data/app.icf'
p2415
sbsS'iwgx_public.defines.txt'
p2416
g309
(g1572
g311
Ntp2417
Rp2418
(dp2419
g1576
g1379
sg1577
g1723
sg335
g1421
sbsS'file.h'
p2420
g309
(g1572
g311
Ntp2421
Rp2422
(dp2423
g1576
g1584
sg1577
g1737
sg335
S'e:/program files (x86)/marmelade/7.4/s3e/h/std/sys/file.h'
p2424
sbsS'cstring'
p2425
g309
(g1572
g311
Ntp2426
Rp2427
(dp2428
g1576
g1584
sg1577
g1585
sg335
S'e:/program files (x86)/marmelade/7.4/s3e/h/std/c++/cstring'
p2429
sbsS'IwSoundInst.cpp'
p2430
g309
(g1572
g311
Ntp2431
Rp2432
(dp2433
g1576
g1109
sg1577
g1624
sg335
g1124
sbsS'Resource.h'
p2434
g309
(g1572
g311
Ntp2435
Rp2436
(dp2437
g1576
g1158
sg1577
g1688
sg335
g1191
sbsS'iwutil.config.txt'
p2438
g309
(g1572
g311
Ntp2439
Rp2440
(dp2441
g1576
g1443
sg1577
g1613
sg335
g1502
sbsS's3eSMS.h'
p2442
g309
(g1572
g311
Ntp2443
Rp2444
(dp2445
g1576
g1584
sg1577
g1806
sg335
S'e:/program files (x86)/marmelade/7.4/s3e/h/ext/s3eSMS.h'
p2446
sbsS'limits.h'
p2447
g309
(g1572
g311
Ntp2448
Rp2449
(dp2450
g1576
g1584
sg1577
g1606
sg335
S'e:/program files (x86)/marmelade/7.4/s3e/h/std/limits.h'
p2451
sbsS'iwgl.config.txt'
p2452
g309
(g1572
g311
Ntp2453
Rp2454
(dp2455
g1576
g1236
sg1577
g1594
sg335
g1237
sbsS'IwMaterial.h'
p2456
g309
(g1572
g311
Ntp2457
Rp2458
(dp2459
g1576
g1379
sg1577
g1723
sg335
g1423
sbsS'PVRTexTool_interface.cpp'
p2460
g309
(g1572
g311
Ntp2461
Rp2462
(dp2463
g1576
g1207
sg1577
(lp2464
g1199
ag1201
ag1203
asg335
g1208
sbsS'IwGxSurface.h'
p2465
g309
(g1572
g311
Ntp2466
Rp2467
(dp2468
g1576
g1379
sg1577
g1723
sg335
g1410
sbsS's3eSocket.h'
p2469
g309
(g1572
g311
Ntp2470
Rp2471
(dp2472
g1576
g1584
sg1577
g1600
sg335
S'e:/program files (x86)/marmelade/7.4/s3e/h/s3eSocket.h'
p2473
sbsS'IwAutoFile.h'
p2474
g309
(g1572
g311
Ntp2475
Rp2476
(dp2477
g1576
g1443
sg1577
g1613
sg335
g1510
sbsS's3eVibra.h'
p2478
g309
(g1572
g311
Ntp2479
Rp2480
(dp2481
g1576
g1584
sg1577
g1600
sg335
S'e:/program files (x86)/marmelade/7.4/s3e/h/s3eVibra.h'
p2482
sbsS'poll_1.h'
p2483
g309
(g1572
g311
Ntp2484
Rp2485
(dp2486
g1576
g1584
sg1577
g1737
sg335
S'e:/program files (x86)/marmelade/7.4/s3e/h/std/sys/poll.h'
p2487
sbsS's3eThread.h'
p2488
g309
(g1572
g311
Ntp2489
Rp2490
(dp2491
g1576
g1584
sg1577
g1600
sg335
S'e:/program files (x86)/marmelade/7.4/s3e/h/s3eThread.h'
p2492
sbsS'ucontext.h'
p2493
g309
(g1572
g311
Ntp2494
Rp2495
(dp2496
g1576
g1584
sg1577
g1606
sg335
S'e:/program files (x86)/marmelade/7.4/s3e/h/std/ucontext.h'
p2497
sbsS'time.h'
p2498
g309
(g1572
g311
Ntp2499
Rp2500
(dp2501
g1576
g1584
sg1577
g1606
sg335
S'e:/program files (x86)/marmelade/7.4/s3e/h/std/time.h'
p2502
sbsS'jchuff.h'
p2503
g309
(g1572
g311
Ntp2504
Rp2505
(dp2506
g1576
g1065
sg1577
g1672
sg335
g1078
sbsS'IwSoundPCM.cpp'
p2507
g309
(g1572
g311
Ntp2508
Rp2509
(dp2510
g1576
g1109
sg1577
g1624
sg335
g1112
sbsS's3eSoundRecord.h'
p2511
g309
(g1572
g311
Ntp2512
Rp2513
(dp2514
g1576
g1584
sg1577
g1600
sg335
S'e:/program files (x86)/marmelade/7.4/s3e/h/s3eSoundRecord.h'
p2515
sbsS'IwFibre.h'
p2516
g309
(g1572
g311
Ntp2517
Rp2518
(dp2519
g1576
g1443
sg1577
g1613
sg335
g1494
sbsS's3eVersion.h'
p2520
g309
(g1572
g311
Ntp2521
Rp2522
(dp2523
g1576
g1584
sg1577
g1600
sg335
S'e:/program files (x86)/marmelade/7.4/s3e/h/s3eVersion.h'
p2524
sbsS'IwSoundGroup.h'
p2525
g309
(g1572
g311
Ntp2526
Rp2527
(dp2528
g1576
g1109
sg1577
g1624
sg335
g1150
sbsS'IwSoundWAV.h'
p2529
g309
(g1572
g311
Ntp2530
Rp2531
(dp2532
g1576
g1109
sg1577
g1624
sg335
g1130
sbsS'IwGxFontGlyph.h'
p2533
g309
(g1572
g311
Ntp2534
Rp2535
(dp2536
g1576
g1257
sg1577
g1578
sg335
g1264
sbsS's3eTypes.h'
p2537
g309
(g1572
g311
Ntp2538
Rp2539
(dp2540
g1576
g1584
sg1577
g1600
sg335
S'e:/program files (x86)/marmelade/7.4/s3e/h/s3eTypes.h'
p2541
sbsS'IwSoundSpec.h'
p2542
g309
(g1572
g311
Ntp2543
Rp2544
(dp2545
g1576
g1109
sg1577
g1624
sg335
g1144
sbsS'signal_2.h'
p2546
g309
(g1572
g311
Ntp2547
Rp2548
(dp2549
g1576
g1584
sg1577
g1585
sg335
S'e:/program files (x86)/marmelade/7.4/s3e/h/std/c++/signal.h'
p2550
sbsS'termios.h'
p2551
g309
(g1572
g311
Ntp2552
Rp2553
(dp2554
g1576
g1584
sg1577
g1606
sg335
S'e:/program files (x86)/marmelade/7.4/s3e/h/std/termios.h'
p2555
sbsS'iw2dscenegraph.mkf'
p2556
g309
(g1572
g311
Ntp2557
Rp2558
(dp2559
g1576
g1228
sg1577
g1897
sg335
g1226
sbsS'slist'
p2560
g309
(g1572
g311
Ntp2561
Rp2562
(dp2563
g1576
g1584
sg1577
g1585
sg335
S'e:/program files (x86)/marmelade/7.4/s3e/h/std/c++/slist'
p2564
sbsS'cstdlib'
p2565
g309
(g1572
g311
Ntp2566
Rp2567
(dp2568
g1576
g1584
sg1577
g1585
sg335
S'e:/program files (x86)/marmelade/7.4/s3e/h/std/c++/cstdlib'
p2569
sbsS's3eLocation.h'
p2570
g309
(g1572
g311
Ntp2571
Rp2572
(dp2573
g1576
g1584
sg1577
g1600
sg335
S'e:/program files (x86)/marmelade/7.4/s3e/h/s3eLocation.h'
p2574
sbsS'IwMemBucketHelpers.h'
p2575
g309
(g1572
g311
Ntp2576
Rp2577
(dp2578
g1576
g1443
sg1577
g1613
sg335
g1541
sbsS's3eHash.h'
p2579
g309
(g1572
g311
Ntp2580
Rp2581
(dp2582
g1576
g1584
sg1577
g1600
sg335
S'e:/program files (x86)/marmelade/7.4/s3e/h/s3eHash.h'
p2583
sbsS'IwSoundGroup.cpp'
p2584
g309
(g1572
g311
Ntp2585
Rp2586
(dp2587
g1576
g1109
sg1577
g1624
sg335
g1122
sbsS'IwGeomFMat.h'
p2588
g309
(g1572
g311
Ntp2589
Rp2590
(dp2591
g1576
g1279
sg1577
g1638
sg335
g1318
sbsS'type_traits.h'
p2592
g309
(g1572
g311
Ntp2593
Rp2594
(dp2595
g1576
g1584
sg1577
g1585
sg335
S'e:/program files (x86)/marmelade/7.4/s3e/h/std/c++/type_traits.h'
p2596
sbsS'IwMenu.h'
p2597
g309
(g1572
g311
Ntp2598
Rp2599
(dp2600
g1576
g1443
sg1577
g1613
sg335
g1450
sbsS'IwResHandlerITX.h'
p2601
g309
(g1572
g311
Ntp2602
Rp2603
(dp2604
g1576
g1355
sg1577
g1851
sg335
g1363
sbsS'IwSoundData.h'
p2605
g309
(g1572
g311
Ntp2606
Rp2607
(dp2608
g1576
g1109
sg1577
g1624
sg335
g1134
sbsS'IwArray.h'
p2609
g309
(g1572
g311
Ntp2610
Rp2611
(dp2612
g1576
g1443
sg1577
g1613
sg335
g1452
sbsS'IwUTF8.h'
p2613
g309
(g1572
g311
Ntp2614
Rp2615
(dp2616
g1576
g1443
sg1577
g1613
sg335
g1456
sbsS'math_rvct.h'
p2617
g309
(g1572
g311
Ntp2618
Rp2619
(dp2620
g1576
g1584
sg1577
g1606
sg335
S'e:/program files (x86)/marmelade/7.4/s3e/h/std/math_rvct.h'
p2621
sbsS'IwUtil.h'
p2622
g309
(g1572
g311
Ntp2623
Rp2624
(dp2625
g1576
g1443
sg1577
g1613
sg335
g1500
sbsS'IwFColour.h'
p2626
g309
(g1572
g311
Ntp2627
Rp2628
(dp2629
g1576
g1379
sg1577
g1723
sg335
g1384
sbsS'wctype.h'
p2630
g309
(g1572
g311
Ntp2631
Rp2632
(dp2633
g1576
g1584
sg1577
g1606
sg335
S'e:/program files (x86)/marmelade/7.4/s3e/h/std/wctype.h'
p2634
sbsS'cstddef'
p2635
g309
(g1572
g311
Ntp2636
Rp2637
(dp2638
g1576
g1584
sg1577
g1585
sg335
S'e:/program files (x86)/marmelade/7.4/s3e/h/std/c++/cstddef'
p2639
sbsS'assert.h'
p2640
g309
(g1572
g311
Ntp2641
Rp2642
(dp2643
g1576
g1584
sg1577
g1606
sg335
S'e:/program files (x86)/marmelade/7.4/s3e/h/std/assert.h'
p2644
sbsS'mman.h'
p2645
g309
(g1572
g311
Ntp2646
Rp2647
(dp2648
g1576
g1584
sg1577
g1737
sg335
S'e:/program files (x86)/marmelade/7.4/s3e/h/std/sys/mman.h'
p2649
sbsS'IwRandom.h'
p2650
g309
(g1572
g311
Ntp2651
Rp2652
(dp2653
g1576
g1443
sg1577
g1613
sg335
g1525
sbsS'libgen.h'
p2654
g309
(g1572
g311
Ntp2655
Rp2656
(dp2657
g1576
g1584
sg1577
g1606
sg335
S'e:/program files (x86)/marmelade/7.4/s3e/h/std/libgen.h'
p2658
sbsS'utsname.h'
p2659
g309
(g1572
g311
Ntp2660
Rp2661
(dp2662
g1576
g1584
sg1577
g1737
sg335
S'e:/program files (x86)/marmelade/7.4/s3e/h/std/sys/utsname.h'
p2663
sbsS'wait.h'
p2664
g309
(g1572
g311
Ntp2665
Rp2666
(dp2667
g1576
g1584
sg1577
g1737
sg335
S'e:/program files (x86)/marmelade/7.4/s3e/h/std/sys/wait.h'
p2668
sbsS'param.h'
p2669
g309
(g1572
g311
Ntp2670
Rp2671
(dp2672
g1576
g1584
sg1577
g1737
sg335
S'e:/program files (x86)/marmelade/7.4/s3e/h/std/sys/param.h'
p2673
sbsS'IwDivide.h'
p2674
g309
(g1572
g311
Ntp2675
Rp2676
(dp2677
g1576
g1443
sg1577
g1613
sg335
g1482
sbsS'Iw2DSceneGraphCore.cpp'
p2678
g309
(g1572
g311
Ntp2679
Rp2680
(dp2681
g1576
g1436
sg1577
(lp2682
S"'Marmalade Studio'"
p2683
ag1429
asg335
g1437
sbsS'Rect.cpp'
p2684
g309
(g1572
g311
Ntp2685
Rp2686
(dp2687
g1576
g1158
sg1577
g1688
sg335
g1167
sbsS'IwSoundManager.h'
p2688
g309
(g1572
g311
Ntp2689
Rp2690
(dp2691
g1576
g1109
sg1577
g1624
sg335
g1116
sbsS'cwctype'
p2692
g309
(g1572
g311
Ntp2693
Rp2694
(dp2695
g1576
g1584
sg1577
g1585
sg335
S'e:/program files (x86)/marmelade/7.4/s3e/h/std/c++/cwctype'
p2696
sbsS'set'
p2697
g309
(g1572
g311
Ntp2698
Rp2699
(dp2700
g1576
g1584
sg1577
g1585
sg335
S'e:/program files (x86)/marmelade/7.4/s3e/h/std/c++/set'
p2701
sbsS'IwGeomSQuat.h'
p2702
g309
(g1572
g311
Ntp2703
Rp2704
(dp2705
g1576
g1279
sg1577
g1638
sg335
g1349
sbsS'locale'
p2706
g309
(g1572
g311
Ntp2707
Rp2708
(dp2709
g1576
g1584
sg1577
g1585
sg335
S'e:/program files (x86)/marmelade/7.4/s3e/h/std/c++/locale'
p2710
sbsS'cstdio'
p2711
g309
(g1572
g311
Ntp2712
Rp2713
(dp2714
g1576
g1584
sg1577
g1585
sg335
S'e:/program files (x86)/marmelade/7.4/s3e/h/std/c++/cstdio'
p2715
sbsS'cdjpeg.h'
p2716
g309
(g1572
g311
Ntp2717
Rp2718
(dp2719
g1576
g1065
sg1577
g1672
sg335
g1072
sbsS'IwList.h'
p2720
g309
(g1572
g311
Ntp2721
Rp2722
(dp2723
g1576
g1443
sg1577
g1613
sg335
g1488
sbsS'inttypes.h'
p2724
g309
(g1572
g311
Ntp2725
Rp2726
(dp2727
g1576
g1584
sg1577
g1606
sg335
S'e:/program files (x86)/marmelade/7.4/s3e/h/std/inttypes.h'
p2728
sbsS'dirent.h'
p2729
g309
(g1572
g311
Ntp2730
Rp2731
(dp2732
g1576
g1584
sg1577
g1606
sg335
S'e:/program files (x86)/marmelade/7.4/s3e/h/std/dirent.h'
p2733
sbsS'IwGeomVec3.h'
p2734
g309
(g1572
g311
Ntp2735
Rp2736
(dp2737
g1576
g1279
sg1577
g1638
sg335
g1324
sbsS'transupp.h'
p2738
g309
(g1572
g311
Ntp2739
Rp2740
(dp2741
g1576
g1065
sg1577
g1672
sg335
g1070
sbsS'IwMath.h'
p2742
g309
(g1572
g311
Ntp2743
Rp2744
(dp2745
g1576
g1443
sg1577
g1613
sg335
g1460
sbsS'IwGeomQuat.h'
p2746
g309
(g1572
g311
Ntp2747
Rp2748
(dp2749
g1576
g1279
sg1577
g1638
sg335
g1336
sbsS'glplatform.h'
p2750
g309
(g1572
g311
Ntp2751
Rp2752
(dp2753
g1576
g1584
sg1577
g2177
sg335
S'e:/program files (x86)/marmelade/7.4/s3e/h/GLES/glplatform.h'
p2754
sbsS's3e-default.mkf'
p2755
g309
(g1572
g311
Ntp2756
Rp2757
(dp2758
g1576
g1568
sg1577
(lp2759
g1564
asg335
g1566
sbsS'bitset'
p2760
g309
(g1572
g311
Ntp2761
Rp2762
(dp2763
g1576
g1584
sg1577
g1585
sg335
S'e:/program files (x86)/marmelade/7.4/s3e/h/std/c++/bitset'
p2764
sbsS'alloca.h'
p2765
g309
(g1572
g311
Ntp2766
Rp2767
(dp2768
g1576
g1584
sg1577
g1606
sg335
S'e:/program files (x86)/marmelade/7.4/s3e/h/std/alloca.h'
p2769
sbsS'IwResHandler.h'
p2770
g309
(g1572
g311
Ntp2771
Rp2772
(dp2773
g1576
g1355
sg1577
g1851
sg335
g1373
sbsS'IwResHandlerMTL.h'
p2774
g309
(g1572
g311
Ntp2775
Rp2776
(dp2777
g1576
g1379
sg1577
g1723
sg335
g1396
sbsS'IwRuntime.h'
p2778
g309
(g1572
g311
Ntp2779
Rp2780
(dp2781
g1576
g1443
sg1577
g1613
sg335
g1523
sbsS'limits'
p2782
g309
(g1572
g311
Ntp2783
Rp2784
(dp2785
g1576
g1584
sg1577
g1585
sg335
S'e:/program files (x86)/marmelade/7.4/s3e/h/std/c++/limits'
p2786
sbsS'IwGeomBBox.h'
p2787
g309
(g1572
g311
Ntp2788
Rp2789
(dp2790
g1576
g1279
sg1577
g1638
sg335
g1316
sbsS'PauseMenu.h'
p2791
g309
(g1572
g311
Ntp2792
Rp2793
(dp2794
g1576
g1158
sg1577
g1688
sg335
g1161
sbsS's3eContacts.h'
p2795
g309
(g1572
g311
Ntp2796
Rp2797
(dp2798
g1576
g1584
sg1577
g1600
sg335
S'e:/program files (x86)/marmelade/7.4/s3e/h/s3eContacts.h'
p2799
sbsS's3eLicense.h'
p2800
g309
(g1572
g311
Ntp2801
Rp2802
(dp2803
g1576
g1584
sg1577
g1600
sg335
S'e:/program files (x86)/marmelade/7.4/s3e/h/s3eLicense.h'
p2804
sbsS'iwgx.config.txt'
p2805
g309
(g1572
g311
Ntp2806
Rp2807
(dp2808
g1576
g1379
sg1577
g1723
sg335
g1377
sbsS'IwTextParser.h'
p2809
g309
(g1572
g311
Ntp2810
Rp2811
(dp2812
g1576
g1443
sg1577
g1613
sg335
g1512
sbsS's3eTimer.h'
p2813
g309
(g1572
g311
Ntp2814
Rp2815
(dp2816
g1576
g1584
sg1577
g1600
sg335
S'e:/program files (x86)/marmelade/7.4/s3e/h/s3eTimer.h'
p2817
sbsS'IwGeomVec.h'
p2818
g309
(g1572
g311
Ntp2819
Rp2820
(dp2821
g1576
g1279
sg1577
g1638
sg335
g1300
sbsS'IwSerialise.h'
p2822
g309
(g1572
g311
Ntp2823
Rp2824
(dp2825
g1576
g1443
sg1577
g1613
sg335
g1458
sbsS'cstdarg'
p2826
g309
(g1572
g311
Ntp2827
Rp2828
(dp2829
g1576
g1584
sg1577
g1585
sg335
S'e:/program files (x86)/marmelade/7.4/s3e/h/std/c++/cstdarg'
p2830
sbsS'gl2ext.h'
p2831
g309
(g1572
g311
Ntp2832
Rp2833
(dp2834
g1576
g1584
sg1577
g1843
sg335
S'e:/program files (x86)/marmelade/7.4/s3e/h/GLES2/gl2ext.h'
p2835
sbsS'IwChar.h'
p2836
g309
(g1572
g311
Ntp2837
Rp2838
(dp2839
g1576
g1443
sg1577
g1613
sg335
g1470
sbsS's3eSound.h'
p2840
g309
(g1572
g311
Ntp2841
Rp2842
(dp2843
g1576
g1584
sg1577
g1600
sg335
S'e:/program files (x86)/marmelade/7.4/s3e/h/s3eSound.h'
p2844
sbsS's3eIOSBackgroundAudio.h'
p2845
g309
(g1572
g311
Ntp2846
Rp2847
(dp2848
g1576
g1584
sg1577
g1806
sg335
S'e:/program files (x86)/marmelade/7.4/s3e/h/ext/s3eIOSBackgroundAudio.h'
p2849
sbsS'exception.h'
p2850
g309
(g1572
g311
Ntp2851
Rp2852
(dp2853
g1576
g1584
sg1577
g1585
sg335
S'e:/program files (x86)/marmelade/7.4/s3e/h/std/c++/exception.h'
p2854
sbsS'Button.cpp'
p2855
g309
(g1572
g311
Ntp2856
Rp2857
(dp2858
g1576
g1158
sg1577
g1688
sg335
g1156
sbsS'iwgeom.config.txt'
p2859
g309
(g1572
g311
Ntp2860
Rp2861
(dp2862
g1576
g1279
sg1577
g1638
sg335
g1298
sbsS'Scene.cpp'
p2863
g309
(g1572
g311
Ntp2864
Rp2865
(dp2866
g1576
g1158
sg1577
g1688
sg335
g1171
sbsS'iwgx.mkf'
p2867
g309
(g1572
g311
Ntp2868
Rp2869
(dp2870
g1576
g1414
sg1577
g1723
sg335
g1412
sbsS'gl.h'
p2871
g309
(g1572
g311
Ntp2872
Rp2873
(dp2874
g1576
g1584
sg1577
g2177
sg335
S'e:/program files (x86)/marmelade/7.4/s3e/h/GLES/gl.h'
p2875
sbsS'zlib.h'
p2876
g309
(g1572
g311
Ntp2877
Rp2878
(dp2879
g1576
g1548
sg1577
g2286
sg335
g1549
sbsS'temp_defines_release.h'
p2880
g309
(g1572
g311
Ntp2881
Rp2882
(dp2883
g1576
(lp2884
sg1577
(lp2885
S"'generated files'"
p2886
asg335
S'e:/Documents/GitHub/Mastermind Remake/Mastermind/build_mastermind_vc11/temp_defines_release.h'
p2887
sbsS'iwgl.mkf'
p2888
g309
(g1572
g311
Ntp2889
Rp2890
(dp2891
g1576
g1233
sg1577
g1594
sg335
g1231
sbsS'IwColour.h'
p2892
g309
(g1572
g311
Ntp2893
Rp2894
(dp2895
g1576
g1379
sg1577
g1723
sg335
g1404
sbsS's3eLibrary.h'
p2896
g309
(g1572
g311
Ntp2897
Rp2898
(dp2899
g1576
g1584
sg1577
g1806
sg335
S'e:/program files (x86)/marmelade/7.4/s3e/h/ext/s3eLibrary.h'
p2900
sbsS'types.h'
p2901
g309
(g1572
g311
Ntp2902
Rp2903
(dp2904
g1576
g1584
sg1577
g1737
sg335
S'e:/program files (x86)/marmelade/7.4/s3e/h/std/sys/types.h'
p2905
sbsS'ifaddrs.h'
p2906
g309
(g1572
g311
Ntp2907
Rp2908
(dp2909
g1576
g1584
sg1577
g1606
sg335
S'e:/program files (x86)/marmelade/7.4/s3e/h/std/ifaddrs.h'
p2910
sbsS'strstream'
p2911
g309
(g1572
g311
Ntp2912
Rp2913
(dp2914
g1576
g1584
sg1577
g1585
sg335
S'e:/program files (x86)/marmelade/7.4/s3e/h/std/c++/strstream'
p2915
sbsS'IwTween.cpp'
p2916
g309
(g1572
g311
Ntp2917
Rp2918
(dp2919
g1576
g1558
sg1577
g2110
sg335
g1559
sbsS'exception'
p2920
g309
(g1572
g311
Ntp2921
Rp2922
(dp2923
g1576
g1584
sg1577
g1585
sg335
S'e:/program files (x86)/marmelade/7.4/s3e/h/std/c++/exception'
p2924
sbsS'rlocks.h'
p2925
g309
(g1572
g311
Ntp2926
Rp2927
(dp2928
g1576
g1584
sg1577
g1585
sg335
S'e:/program files (x86)/marmelade/7.4/s3e/h/std/c++/rlocks.h'
p2929
sbsS'Rect.h'
p2930
g309
(g1572
g311
Ntp2931
Rp2932
(dp2933
g1576
g1158
sg1577
g1688
sg335
g1179
sbsS'rope'
p2934
g309
(g1572
g311
Ntp2935
Rp2936
(dp2937
g1576
g1584
sg1577
g1585
sg335
S'e:/program files (x86)/marmelade/7.4/s3e/h/std/c++/rope'
p2938
sbsS'jinclude.h'
p2939
g309
(g1572
g311
Ntp2940
Rp2941
(dp2942
g1576
g1065
sg1577
g1672
sg335
g1086
sbsS'IwEvent.h'
p2943
g309
(g1572
g311
Ntp2944
Rp2945
(dp2946
g1576
g1443
sg1577
g1613
sg335
g1464
sbsS'IwOptimiseSize.h'
p2947
g309
(g1572
g311
Ntp2948
Rp2949
(dp2950
g1576
g1443
sg1577
g1613
sg335
g1480
sbsS'iwgxfont_public.defines.txt'
p2951
g309
(g1572
g311
Ntp2952
Rp2953
(dp2954
g1576
g1257
sg1577
g1578
sg335
g1273
sbsS'iconv.h'
p2955
g309
(g1572
g311
Ntp2956
Rp2957
(dp2958
g1576
g1584
sg1577
g1606
sg335
S'e:/program files (x86)/marmelade/7.4/s3e/h/std/iconv.h'
p2959
sbsS's3eDevice.h'
p2960
g309
(g1572
g311
Ntp2961
Rp2962
(dp2963
g1576
g1584
sg1577
g1600
sg335
S'e:/program files (x86)/marmelade/7.4/s3e/h/s3eDevice.h'
p2964
sbsS'IwGeomSphere.h'
p2965
g309
(g1572
g311
Ntp2966
Rp2967
(dp2968
g1576
g1279
sg1577
g1638
sg335
g1302
sbsS'tiniconv.mkf'
p2969
g309
(g1572
g311
Ntp2970
Rp2971
(dp2972
g1576
g1096
sg1577
g2063
sg335
g1094
sbsS'iw2dscenegraph.defines.txt'
p2973
g309
(g1572
g311
Ntp2974
Rp2975
(dp2976
g1576
g1221
sg1577
g1897
sg335
g1222
sbsS'jdct.h'
p2977
g309
(g1572
g311
Ntp2978
Rp2979
(dp2980
g1576
g1065
sg1577
g1672
sg335
g1090
sbsS'cctype'
p2981
g309
(g1572
g311
Ntp2982
Rp2983
(dp2984
g1576
g1584
sg1577
g1585
sg335
S'e:/program files (x86)/marmelade/7.4/s3e/h/std/c++/cctype'
p2985
sbsS'IwSoundADPCM.cpp'
p2986
g309
(g1572
g311
Ntp2987
Rp2988
(dp2989
g1576
g1109
sg1577
g1624
sg335
g1136
sbsS'Mastermind.cpp'
p2990
g309
(g1572
g311
Ntp2991
Rp2992
(dp2993
g1576
g1158
sg1577
g1688
sg335
g1185
sbsS's3eConfig.h'
p2994
g309
(g1572
g311
Ntp2995
Rp2996
(dp2997
g1576
g1584
sg1577
g1600
sg335
S'e:/program files (x86)/marmelade/7.4/s3e/h/s3eConfig.h'
p2998
sbsS'IwHashString.h'
p2999
g309
(g1572
g311
Ntp3000
Rp3001
(dp3002
g1576
g1443
sg1577
g1613
sg335
g1441
sbsS'stat.h'
p3003
g309
(g1572
g311
Ntp3004
Rp3005
(dp3006
g1576
g1584
sg1577
g1737
sg335
S'e:/program files (x86)/marmelade/7.4/s3e/h/std/sys/stat.h'
p3007
sbsS'byteswap.h'
p3008
g309
(g1572
g311
Ntp3009
Rp3010
(dp3011
g1576
g1584
sg1577
g1606
sg335
S'e:/program files (x86)/marmelade/7.4/s3e/h/std/byteswap.h'
p3012
sbsS'iwresmanager.mkf'
p3013
g309
(g1572
g311
Ntp3014
Rp3015
(dp3016
g1576
g1362
sg1577
g1851
sg335
g1360
sbsS'IwUtilInitTerm.h'
p3017
g309
(g1572
g311
Ntp3018
Rp3019
(dp3020
g1576
g1443
sg1577
g1613
sg335
g1462
sbsS'pthread_1.h'
p3021
g309
(g1572
g311
Ntp3022
Rp3023
(dp3024
g1576
g1584
sg1577
g1585
sg335
S'e:/program files (x86)/marmelade/7.4/s3e/h/std/c++/pthread.h'
p3025
sbsS'iw2d.mkf'
p3026
g309
(g1572
g311
Ntp3027
Rp3028
(dp3029
g1576
g1252
sg1577
g1677
sg335
g1250
sbsS'complex'
p3030
g309
(g1572
g311
Ntp3031
Rp3032
(dp3033
g1576
g1584
sg1577
g1585
sg335
S'e:/program files (x86)/marmelade/7.4/s3e/h/std/c++/complex'
p3034
sbsS'algorithm'
p3035
g309
(g1572
g311
Ntp3036
Rp3037
(dp3038
g1576
g1584
sg1577
g1585
sg335
S'e:/program files (x86)/marmelade/7.4/s3e/h/std/c++/algorithm'
p3039
sbsS's3e.icf'
p3040
g309
(g1572
g311
Ntp3041
Rp3042
(dp3043
g1576
g1584
sg1577
g1600
sg335
S'e:/program files (x86)/marmelade/7.4/s3e/s3e.icf'
p3044
sbsS'IwVariableBitField.h'
p3045
g309
(g1572
g311
Ntp3046
Rp3047
(dp3048
g1576
g1443
sg1577
g1613
sg335
g1537
sbsS'sem.h'
p3049
g309
(g1572
g311
Ntp3050
Rp3051
(dp3052
g1576
g1584
sg1577
g1737
sg335
S'e:/program files (x86)/marmelade/7.4/s3e/h/std/sys/sem.h'
p3053
sbsS'IwGxFontState.h'
p3054
g309
(g1572
g311
Ntp3055
Rp3056
(dp3057
g1576
g1257
sg1577
g1578
sg335
g1262
sbsS'stdio.h'
p3058
g309
(g1572
g311
Ntp3059
Rp3060
(dp3061
g1576
g1584
sg1577
g1606
sg335
S'e:/program files (x86)/marmelade/7.4/s3e/h/std/stdio.h'
p3062
sbsS'Game.h'
p3063
g309
(g1572
g311
Ntp3064
Rp3065
(dp3066
g1576
g1158
sg1577
g1688
sg335
g1187
sbsS'jmemsys.h'
p3067
g309
(g1572
g311
Ntp3068
Rp3069
(dp3070
g1576
g1065
sg1577
g1672
sg335
g1068
sbsS'ios'
p3071
g309
(g1572
g311
Ntp3072
Rp3073
(dp3074
g1576
g1584
sg1577
g1585
sg335
S'e:/program files (x86)/marmelade/7.4/s3e/h/std/c++/ios'
p3075
sbsS'IwTween.h'
p3076
g309
(g1572
g311
Ntp3077
Rp3078
(dp3079
g1576
g1558
sg1577
g2110
sg335
g1556
sbsS'PVRTexTool.defines.txt'
p3080
g309
(g1572
g311
Ntp3081
Rp3082
(dp3083
g1576
g1207
sg1577
g2464
sg335
g1205
sbsS'stack'
p3084
g309
(g1572
g311
Ntp3085
Rp3086
(dp3087
g1576
g1584
sg1577
g1585
sg335
S'e:/program files (x86)/marmelade/7.4/s3e/h/std/c++/stack'
p3088
sbsS'Audio.cpp'
p3089
g309
(g1572
g311
Ntp3090
Rp3091
(dp3092
g1576
g1158
sg1577
g1688
sg335
g1169
sbsS'IwSoundParams.h'
p3093
g309
(g1572
g311
Ntp3094
Rp3095
(dp3096
g1576
g1109
sg1577
g1624
sg335
g1138
sbsS'new.h'
p3097
g309
(g1572
g311
Ntp3098
Rp3099
(dp3100
g1576
g1584
sg1577
g1585
sg335
S'e:/program files (x86)/marmelade/7.4/s3e/h/std/c++/new.h'
p3101
sbsS's3eEMail.h'
p3102
g309
(g1572
g311
Ntp3103
Rp3104
(dp3105
g1576
g1584
sg1577
g1806
sg335
S'e:/program files (x86)/marmelade/7.4/s3e/h/ext/s3eEMail.h'
p3106
sbsS's3eVideo.h'
p3107
g309
(g1572
g311
Ntp3108
Rp3109
(dp3110
g1576
g1584
sg1577
g1600
sg335
S'e:/program files (x86)/marmelade/7.4/s3e/h/s3eVideo.h'
p3111
sbsS'pngconf.h'
p3112
g309
(g1572
g311
Ntp3113
Rp3114
(dp3115
g1576
g1051
sg1577
g2350
sg335
g1052
sbsS'pwd.h'
p3116
g309
(g1572
g311
Ntp3117
Rp3118
(dp3119
g1576
g1584
sg1577
g1606
sg335
S'e:/program files (x86)/marmelade/7.4/s3e/h/std/pwd.h'
p3120
sbsS'gl3.h'
p3121
g309
(g1572
g311
Ntp3122
Rp3123
(dp3124
g1576
g1584
sg1577
g1908
sg335
S'e:/program files (x86)/marmelade/7.4/s3e/h/GLES3/gl3.h'
p3125
sbsS'IwClip.h'
p3126
g309
(g1572
g311
Ntp3127
Rp3128
(dp3129
g1576
g1379
sg1577
g1723
sg335
g1406
sbsS'IwSoundInst.h'
p3130
g309
(g1572
g311
Ntp3131
Rp3132
(dp3133
g1576
g1109
sg1577
g1624
sg335
g1120
sbsS'iwresmanager.config.txt'
p3134
g309
(g1572
g311
Ntp3135
Rp3136
(dp3137
g1576
g1355
sg1577
g1851
sg335
g1371
sbsS'IwGxShaderTechnique.h'
p3138
g309
(g1572
g311
Ntp3139
Rp3140
(dp3141
g1576
g1379
sg1577
g1723
sg335
g1392
sbsS'IwCore.h'
p3142
g309
(g1572
g311
Ntp3143
Rp3144
(dp3145
g1576
g1443
sg1577
g1613
sg335
g1539
sbsS'cfloat'
p3146
g309
(g1572
g311
Ntp3147
Rp3148
(dp3149
g1576
g1584
sg1577
g1585
sg335
S'e:/program files (x86)/marmelade/7.4/s3e/h/std/c++/cfloat'
p3150
sbsS'IwGeomMat2D.h'
p3151
g309
(g1572
g311
Ntp3152
Rp3153
(dp3154
g1576
g1279
sg1577
g1638
sg335
g1277
sbsS'IwAllocator.h'
p3155
g309
(g1572
g311
Ntp3156
Rp3157
(dp3158
g1576
g1443
sg1577
g1613
sg335
g1468
sbsS'MainMenu.cpp'
p3159
g309
(g1572
g311
Ntp3160
Rp3161
(dp3162
g1576
g1158
sg1577
g1688
sg335
g1189
sbsS'IwPath.h'
p3163
g309
(g1572
g311
Ntp3164
Rp3165
(dp3166
g1576
g1443
sg1577
g1613
sg335
g1535
sbsS'iwgxfont.mkf'
p3167
g309
(g1572
g311
Ntp3168
Rp3169
(dp3170
g1576
g1270
sg1577
g1578
sg335
g1268
sbsS'IwTexture.h'
p3171
g309
(g1572
g311
Ntp3172
Rp3173
(dp3174
g1576
g1379
sg1577
g1723
sg335
g1415
sbsS'IwGeomVec.h.tpl'
p3175
g309
(g1572
g311
Ntp3176
Rp3177
(dp3178
g1576
g1279
sg1577
g1638
sg335
g1340
sbsS's3eAccelerometer.h'
p3179
g309
(g1572
g311
Ntp3180
Rp3181
(dp3182
g1576
g1584
sg1577
g1600
sg335
S'e:/program files (x86)/marmelade/7.4/s3e/h/s3eAccelerometer.h'
p3183
sbsS'setjmp.h'
p3184
g309
(g1572
g311
Ntp3185
Rp3186
(dp3187
g1576
g1584
sg1577
g1606
sg335
S'e:/program files (x86)/marmelade/7.4/s3e/h/std/setjmp.h'
p3188
sbsS'IwSoundParams.cpp'
p3189
g309
(g1572
g311
Ntp3190
Rp3191
(dp3192
g1576
g1109
sg1577
g1624
sg335
g1148
sbsS'IwFile.h'
p3193
g309
(g1572
g311
Ntp3194
Rp3195
(dp3196
g1576
g1443
sg1577
g1613
sg335
g1496
sbsS'IwTextParseable.h'
p3197
g309
(g1572
g311
Ntp3198
Rp3199
(dp3200
g1576
g1443
sg1577
g1613
sg335
g1514
sbsS'istream.h'
p3201
g309
(g1572
g311
Ntp3202
Rp3203
(dp3204
g1576
g1584
sg1577
g1585
sg335
S'e:/program files (x86)/marmelade/7.4/s3e/h/std/c++/istream.h'
p3205
sbsS'stdint.h'
p3206
g309
(g1572
g311
Ntp3207
Rp3208
(dp3209
g1576
g1584
sg1577
g1606
sg335
S'e:/program files (x86)/marmelade/7.4/s3e/h/std/stdint.h'
p3210
sbsS'semaphore.h'
p3211
g309
(g1572
g311
Ntp3212
Rp3213
(dp3214
g1576
g1584
sg1577
g1606
sg335
S'e:/program files (x86)/marmelade/7.4/s3e/h/std/semaphore.h'
p3215
sbsS'Main.cpp'
p3216
g309
(g1572
g311
Ntp3217
Rp3218
(dp3219
g1576
g1158
sg1577
g1688
sg335
g1175
sbsS'ctime'
p3220
g309
(g1572
g311
Ntp3221
Rp3222
(dp3223
g1576
g1584
sg1577
g1585
sg335
S'e:/program files (x86)/marmelade/7.4/s3e/h/std/c++/ctime'
p3224
sbsS'sstream'
p3225
g309
(g1572
g311
Ntp3226
Rp3227
(dp3228
g1576
g1584
sg1577
g1585
sg335
S'e:/program files (x86)/marmelade/7.4/s3e/h/std/c++/sstream'
p3229
sbsS'IwGeomFBBox.h'
p3230
g309
(g1572
g311
Ntp3231
Rp3232
(dp3233
g1576
g1279
sg1577
g1638
sg335
g1296
sbsS'IwDebugPrim.h'
p3234
g309
(g1572
g311
Ntp3235
Rp3236
(dp3237
g1576
g1379
sg1577
g1723
sg335
g1386
sbsS'IwGxFontContainer.h'
p3238
g309
(g1572
g311
Ntp3239
Rp3240
(dp3241
g1576
g1257
sg1577
g1578
sg335
g1271
sbsS'IwGeomSVec3.h'
p3242
g309
(g1572
g311
Ntp3243
Rp3244
(dp3245
g1576
g1279
sg1577
g1638
sg335
g1330
sbsS'iw2dscenegraphcore.mkf'
p3246
g309
(g1572
g311
Ntp3247
Rp3248
(dp3249
g1576
g1433
sg1577
g2682
sg335
g1431
sbsS's3eExt.h'
p3250
g309
(g1572
g311
Ntp3251
Rp3252
(dp3253
g1576
g1584
sg1577
g1600
sg335
S'e:/program files (x86)/marmelade/7.4/s3e/h/s3eExt.h'
p3254
sbsS'IwGeomFVec3.h'
p3255
g309
(g1572
g311
Ntp3256
Rp3257
(dp3258
g1576
g1279
sg1577
g1638
sg335
g1312
sbsS'streambuf'
p3259
g309
(g1572
g311
Ntp3260
Rp3261
(dp3262
g1576
g1584
sg1577
g1585
sg335
S'e:/program files (x86)/marmelade/7.4/s3e/h/std/c++/streambuf'
p3263
sbsS's3eMetrics.h'
p3264
g309
(g1572
g311
Ntp3265
Rp3266
(dp3267
g1576
g1584
sg1577
g1806
sg335
S'e:/program files (x86)/marmelade/7.4/s3e/h/ext/s3eMetrics.h'
p3268
sbsS'IwGxFont.h'
p3269
g309
(g1572
g311
Ntp3270
Rp3271
(dp3272
g1576
g1257
sg1577
g1578
sg335
g1266
sbsS's3eSecureStorage.h'
p3273
g309
(g1572
g311
Ntp3274
Rp3275
(dp3276
g1576
g1584
sg1577
g1600
sg335
S'e:/program files (x86)/marmelade/7.4/s3e/h/s3eSecureStorage.h'
p3277
sbsS'string.h'
p3278
g309
(g1572
g311
Ntp3279
Rp3280
(dp3281
g1576
g1584
sg1577
g1606
sg335
S'e:/program files (x86)/marmelade/7.4/s3e/h/std/string.h'
p3282
sbsS'IwResource.h'
p3283
g309
(g1572
g311
Ntp3284
Rp3285
(dp3286
g1576
g1443
sg1577
g1613
sg335
g1506
sbsS'IwGeomSVec2.h'
p3287
g309
(g1572
g311
Ntp3288
Rp3289
(dp3290
g1576
g1279
sg1577
g1638
sg335
g1326
sbsS'libjpeg.mkf'
p3291
g309
(g1572
g311
Ntp3292
Rp3293
(dp3294
g1576
g1061
sg1577
(lp3295
g1057
asg335
g1059
sbsS'IwGxDebug.h'
p3296
g309
(g1572
g311
Ntp3297
Rp3298
(dp3299
g1576
g1379
sg1577
g1723
sg335
g1398
sbsS'float.h'
p3300
g309
(g1572
g311
Ntp3301
Rp3302
(dp3303
g1576
g1584
sg1577
g1606
sg335
S'e:/program files (x86)/marmelade/7.4/s3e/h/std/float.h'
p3304
sbsS'iomanip.h'
p3305
g309
(g1572
g311
Ntp3306
Rp3307
(dp3308
g1576
g1584
sg1577
g1585
sg335
S'e:/program files (x86)/marmelade/7.4/s3e/h/std/c++/iomanip.h'
p3309
sbsS'Audio.h'
p3310
g309
(g1572
g311
Ntp3311
Rp3312
(dp3313
g1576
g1158
sg1577
g1688
sg335
g1163
sbsS'IwKeymap.h'
p3314
g309
(g1572
g311
Ntp3315
Rp3316
(dp3317
g1576
g1443
sg1577
g1613
sg335
g1531
sbsS'IwDebug.h'
p3318
g309
(g1572
g311
Ntp3319
Rp3320
(dp3321
g1576
g1443
sg1577
g1613
sg335
g1492
sbsS'IwOptimiseThumb.h'
p3322
g309
(g1572
g311
Ntp3323
Rp3324
(dp3325
g1576
g1443
sg1577
g1613
sg335
g1472
sbsS'IwGeomMenu.h'
p3326
g309
(g1572
g311
Ntp3327
Rp3328
(dp3329
g1576
g1279
sg1577
g1638
sg335
g1286
sbsS'IwDivTable.h'
p3330
g309
(g1572
g311
Ntp3331
Rp3332
(dp3333
g1576
g1443
sg1577
g1613
sg335
g1478
sbsS'ctype.h'
p3334
g309
(g1572
g311
Ntp3335
Rp3336
(dp3337
g1576
g1584
sg1577
g1606
sg335
S'e:/program files (x86)/marmelade/7.4/s3e/h/std/ctype.h'
p3338
sbsS'IwGeomMat.h'
p3339
g309
(g1572
g311
Ntp3340
Rp3341
(dp3342
g1576
g1279
sg1577
g1638
sg335
g1308
sbsS'IwResGroup.h'
p3343
g309
(g1572
g311
Ntp3344
Rp3345
(dp3346
g1576
g1355
sg1577
g1851
sg335
g1367
sbsS'signal_1.h'
p3347
g309
(g1572
g311
Ntp3348
Rp3349
(dp3350
g1576
g1584
sg1577
g1737
sg335
S'e:/program files (x86)/marmelade/7.4/s3e/h/std/sys/signal.h'
p3351
sbsS'IwSoundData.cpp'
p3352
g309
(g1572
g311
Ntp3353
Rp3354
(dp3355
g1576
g1109
sg1577
g1624
sg335
g1118
sbsS'functional'
p3356
g309
(g1572
g311
Ntp3357
Rp3358
(dp3359
g1576
g1584
sg1577
g1585
sg335
S'e:/program files (x86)/marmelade/7.4/s3e/h/std/c++/functional'
p3360
sbsS'shm.h'
p3361
g309
(g1572
g311
Ntp3362
Rp3363
(dp3364
g1576
g1584
sg1577
g1737
sg335
S'e:/program files (x86)/marmelade/7.4/s3e/h/std/sys/shm.h'
p3365
sbsS'IwManagedList.h'
p3366
g309
(g1572
g311
Ntp3367
Rp3368
(dp3369
g1576
g1443
sg1577
g1613
sg335
g1516
sbsS'Game.cpp'
p3370
g309
(g1572
g311
Ntp3371
Rp3372
(dp3373
g1576
g1158
sg1577
g1688
sg335
g1193
sbsS'prctl.h'
p3374
g309
(g1572
g311
Ntp3375
Rp3376
(dp3377
g1576
g1584
sg1577
g1737
sg335
S'e:/program files (x86)/marmelade/7.4/s3e/h/std/sys/prctl.h'
p3378
sbsS'IwGxStream.h'
p3379
g309
(g1572
g311
Ntp3380
Rp3381
(dp3382
g1576
g1379
sg1577
g1723
sg335
g1380
sbsS'temp_defines_debug.h'
p3383
g309
(g1572
g311
Ntp3384
Rp3385
(dp3386
g1576
(lp3387
sg1577
(lp3388
g2886
asg335
S'e:/Documents/GitHub/Mastermind Remake/Mastermind/build_mastermind_vc11/temp_defines_debug.h'
p3389
sbsS'utility'
p3390
g309
(g1572
g311
Ntp3391
Rp3392
(dp3393
g1576
g1584
sg1577
g1585
sg335
S'e:/program files (x86)/marmelade/7.4/s3e/h/std/c++/utility'
p3394
sbsS'Resource.cpp'
p3395
g309
(g1572
g311
Ntp3396
Rp3397
(dp3398
g1576
g1158
sg1577
g1688
sg335
g1195
sbsS'IwGeomLegacy.h'
p3399
g309
(g1572
g311
Ntp3400
Rp3401
(dp3402
g1576
g1279
sg1577
g1638
sg335
g1338
sbsS'IwTPage.h'
p3403
g309
(g1572
g311
Ntp3404
Rp3405
(dp3406
g1576
g1379
sg1577
g1723
sg335
g1394
sbsS'IwResSerialise.h'
p3407
g309
(g1572
g311
Ntp3408
Rp3409
(dp3410
g1576
g1355
sg1577
g1851
sg335
g1369
sbsS's3eCrypto.h'
p3411
g309
(g1572
g311
Ntp3412
Rp3413
(dp3414
g1576
g1584
sg1577
g1600
sg335
S'e:/program files (x86)/marmelade/7.4/s3e/h/s3eCrypto.h'
p3415
sbsS's3eKeyboard.h'
p3416
g309
(g1572
g311
Ntp3417
Rp3418
(dp3419
g1576
g1584
sg1577
g1600
sg335
S'e:/program files (x86)/marmelade/7.4/s3e/h/s3eKeyboard.h'
p3420
sbsS'fcntl.h'
p3421
g309
(g1572
g311
Ntp3422
Rp3423
(dp3424
g1576
g1584
sg1577
g1606
sg335
S'e:/program files (x86)/marmelade/7.4/s3e/h/std/fcntl.h'
p3425
sbsS'Iw2DSceneGraphCore.h'
p3426
g309
(g1572
g311
Ntp3427
Rp3428
(dp3429
g1576
g1436
sg1577
g2682
sg335
g1434
sbsS'memory.h'
p3430
g309
(g1572
g311
Ntp3431
Rp3432
(dp3433
g1576
g1584
sg1577
g1606
sg335
S'e:/program files (x86)/marmelade/7.4/s3e/h/std/memory.h'
p3434
sbsS'utime.h'
p3435
g309
(g1572
g311
Ntp3436
Rp3437
(dp3438
g1576
g1584
sg1577
g1606
sg335
S'e:/program files (x86)/marmelade/7.4/s3e/h/std/utime.h'
p3439
sbsS'pthread.h'
p3440
g309
(g1572
g311
Ntp3441
Rp3442
(dp3443
g1576
g1584
sg1577
g1606
sg335
S'e:/program files (x86)/marmelade/7.4/s3e/h/std/pthread.h'
p3444
sbsS'IwGeomIntersect.h'
p3445
g309
(g1572
g311
Ntp3446
Rp3447
(dp3448
g1576
g1279
sg1577
g1638
sg335
g1334
sbsS'IwTextParserITX.h'
p3449
g309
(g1572
g311
Ntp3450
Rp3451
(dp3452
g1576
g1443
sg1577
g1613
sg335
g1466
sbsS'egl_1.h'
p3453
g309
(g1572
g311
Ntp3454
Rp3455
(dp3456
g1576
g1584
sg1577
g2177
sg335
S'e:/program files (x86)/marmelade/7.4/s3e/h/GLES/egl.h'
p3457
sbsS'Iw2DSceneGraph.cpp'
p3458
g309
(g1572
g311
Ntp3459
Rp3460
(dp3461
g1576
g1221
sg1577
g1897
sg335
g1219
sbsS'ostream.h'
p3462
g309
(g1572
g311
Ntp3463
Rp3464
(dp3465
g1576
g1584
sg1577
g1585
sg335
S'e:/program files (x86)/marmelade/7.4/s3e/h/std/c++/ostream.h'
p3466
sbsS'stl_user_config.h'
p3467
g309
(g1572
g311
Ntp3468
Rp3469
(dp3470
g1576
g1584
sg1577
g1585
sg335
S'e:/program files (x86)/marmelade/7.4/s3e/h/std/c++/stl_user_config.h'
p3471
sbsS'IwProfileMenu.h'
p3472
g309
(g1572
g311
Ntp3473
Rp3474
(dp3475
g1576
g1443
sg1577
g1613
sg335
g1529
sbsS'MarmaladeVersion.h'
p3476
g309
(g1572
g311
Ntp3477
Rp3478
(dp3479
g1576
g1584
sg1577
g1600
sg335
S'e:/program files (x86)/marmelade/7.4/s3e/h/MarmaladeVersion.h'
p3480
sbsS'IwResHandlerWAV.h'
p3481
g309
(g1572
g311
Ntp3482
Rp3483
(dp3484
g1576
g1109
sg1577
g1624
sg335
g1142
sbsS'gl3platform.h'
p3485
g309
(g1572
g311
Ntp3486
Rp3487
(dp3488
g1576
g1584
sg1577
g1908
sg335
S'e:/program files (x86)/marmelade/7.4/s3e/h/GLES3/gl3platform.h'
p3489
sbsS'ios.h'
p3490
g309
(g1572
g311
Ntp3491
Rp3492
(dp3493
g1576
g1584
sg1577
g1585
sg335
S'e:/program files (x86)/marmelade/7.4/s3e/h/std/c++/ios.h'
p3494
sbsS'IwImageHelper.h'
p3495
g309
(g1572
g311
Ntp3496
Rp3497
(dp3498
g1576
g1443
sg1577
g1613
sg335
g1533
sbsS'hash_set'
p3499
g309
(g1572
g311
Ntp3500
Rp3501
(dp3502
g1576
g1584
sg1577
g1585
sg335
S'e:/program files (x86)/marmelade/7.4/s3e/h/std/c++/hash_set'
p3503
sbsS'IwGeomFQuat.h'
p3504
g309
(g1572
g311
Ntp3505
Rp3506
(dp3507
g1576
g1279
sg1577
g1638
sg335
g1328
sbsS'jmorecfg.h'
p3508
g309
(g1572
g311
Ntp3509
Rp3510
(dp3511
g1576
g1065
sg1577
g1672
sg335
g1080
sbsS'eglplatform.h'
p3512
g309
(g1572
g311
Ntp3513
Rp3514
(dp3515
g1576
g1584
sg1577
g1940
sg335
S'e:/program files (x86)/marmelade/7.4/s3e/h/EGL/eglplatform.h'
p3516
sbsS'cmath'
p3517
g309
(g1572
g311
Ntp3518
Rp3519
(dp3520
g1576
g1584
sg1577
g1585
sg335
S'e:/program files (x86)/marmelade/7.4/s3e/h/std/c++/cmath'
p3521
sbsS'math_gcc.h'
p3522
g309
(g1572
g311
Ntp3523
Rp3524
(dp3525
g1576
g1584
sg1577
g1606
sg335
S'e:/program files (x86)/marmelade/7.4/s3e/h/std/math_gcc.h'
p3526
sbsS's3eMemory.h'
p3527
g309
(g1572
g311
Ntp3528
Rp3529
(dp3530
g1576
g1584
sg1577
g1600
sg335
S'e:/program files (x86)/marmelade/7.4/s3e/h/s3eMemory.h'
p3531
sbsS'strings.h'
p3532
g309
(g1572
g311
Ntp3533
Rp3534
(dp3535
g1576
g1584
sg1577
g1606
sg335
S'e:/program files (x86)/marmelade/7.4/s3e/h/std/strings.h'
p3536
sbsS's3eFile.h'
p3537
g309
(g1572
g311
Ntp3538
Rp3539
(dp3540
g1576
g1584
sg1577
g1600
sg335
S'e:/program files (x86)/marmelade/7.4/s3e/h/s3eFile.h'
p3541
sbsS'IwGxTypes.h'
p3542
g309
(g1572
g311
Ntp3543
Rp3544
(dp3545
g1576
g1379
sg1577
g1723
sg335
g1425
sbsS'cerrno'
p3546
g309
(g1572
g311
Ntp3547
Rp3548
(dp3549
g1576
g1584
sg1577
g1585
sg335
S'e:/program files (x86)/marmelade/7.4/s3e/h/std/c++/cerrno'
p3550
sbsS'IwSoundManager.cpp'
p3551
g309
(g1572
g311
Ntp3552
Rp3553
(dp3554
g1576
g1109
sg1577
g1624
sg335
g1110
sbsS'soundengine.mkf'
p3555
g309
(g1572
g311
Ntp3556
Rp3557
(dp3558
g1576
g1106
sg1577
g1624
sg335
g1104
sbsS'resource.h'
p3559
g309
(g1572
g311
Ntp3560
Rp3561
(dp3562
g1576
g1584
sg1577
g1737
sg335
S'e:/program files (x86)/marmelade/7.4/s3e/h/std/sys/resource.h'
p3563
sbsS'clocale'
p3564
g309
(g1572
g311
Ntp3565
Rp3566
(dp3567
g1576
g1584
sg1577
g1585
sg335
S'e:/program files (x86)/marmelade/7.4/s3e/h/std/c++/clocale'
p3568
sbsS'pvrtextool.mkf'
p3569
g309
(g1572
g311
Ntp3570
Rp3571
(dp3572
g1576
g1214
sg1577
g2214
sg335
g1212
sbsS'csetjmp'
p3573
g309
(g1572
g311
Ntp3574
Rp3575
(dp3576
g1576
g1584
sg1577
g1585
sg335
S'e:/program files (x86)/marmelade/7.4/s3e/h/std/c++/csetjmp'
p3577
sbsS'netdb.h'
p3578
g309
(g1572
g311
Ntp3579
Rp3580
(dp3581
g1576
g1584
sg1577
g1606
sg335
S'e:/program files (x86)/marmelade/7.4/s3e/h/std/netdb.h'
p3582
sbsS's3eAndroidJNI.h'
p3583
g309
(g1572
g311
Ntp3584
Rp3585
(dp3586
g1576
g1584
sg1577
g1806
sg335
S'e:/program files (x86)/marmelade/7.4/s3e/h/ext/s3eAndroidJNI.h'
p3587
sbsS'stdexcept'
p3588
g309
(g1572
g311
Ntp3589
Rp3590
(dp3591
g1576
g1584
sg1577
g1585
sg335
S'e:/program files (x86)/marmelade/7.4/s3e/h/std/c++/stdexcept'
p3592
sbsS'math.h'
p3593
g309
(g1572
g311
Ntp3594
Rp3595
(dp3596
g1576
g1584
sg1577
g1606
sg335
S'e:/program files (x86)/marmelade/7.4/s3e/h/std/math.h'
p3597
sbsS'stdbool.h'
p3598
g309
(g1572
g311
Ntp3599
Rp3600
(dp3601
g1576
g1584
sg1577
g1606
sg335
S'e:/program files (x86)/marmelade/7.4/s3e/h/std/stdbool.h'
p3602
sbsS'uio.h'
p3603
g309
(g1572
g311
Ntp3604
Rp3605
(dp3606
g1576
g1584
sg1577
g1737
sg335
S'e:/program files (x86)/marmelade/7.4/s3e/h/std/sys/uio.h'
p3607
sbsS'IwUncopyable.h'
p3608
g309
(g1572
g311
Ntp3609
Rp3610
(dp3611
g1576
g1443
sg1577
g1613
sg335
g1527
sbssS'juice_build_type'
p3612
g4
sS'tests'
p3613
(lp3614
sS'project_name'
p3615
g317
sS'root_file'
p3616
g124
sS'current_root'
p3617
S'e:/Documents/GitHub/Mastermind Remake/Mastermind'
p3618
sS'dependencies'
p3619
(lp3620
sS'include_paths'
p3621
(lp3622
S'e:/program files (x86)/marmelade/7.4/modules/iw2d/h'
p3623
aS'e:/program files (x86)/marmelade/7.4/modules/iwgx/h'
p3624
aS'e:/program files (x86)/marmelade/7.4/modules/iwgl/h'
p3625
aS'e:/program files (x86)/marmelade/7.4/modules/iwutil/h'
p3626
aS'e:/program files (x86)/marmelade/7.4/modules/third_party/libjpeg/h'
p3627
aS'e:/program files (x86)/marmelade/7.4/modules/third_party/zlib/h'
p3628
aS'e:/program files (x86)/marmelade/7.4/modules/third_party/libpng/h'
p3629
aS'e:/program files (x86)/marmelade/7.4/modules/iwgeom/h'
p3630
aS'e:/program files (x86)/marmelade/7.4/modules/iwresmanager/h'
p3631
aS'e:/program files (x86)/marmelade/7.4/extensions/pvrtextool/h'
p3632
aS'e:/program files (x86)/marmelade/7.4/modules/iwgxfont/h'
p3633
aS'e:/program files (x86)/marmelade/7.4/modules/third_party/tiniconv/source'
p3634
aS'e:/program files (x86)/marmelade/7.4/modules/iwtween/h'
p3635
aS'e:/program files (x86)/marmelade/7.4/modules/iw2dscenegraph/h'
p3636
aS'e:/program files (x86)/marmelade/7.4/modules/iw2dscenegraphcore/h'
p3637
aS'e:/documents/github/mastermind remake/modules/soundengine/h'
p3638
aS'e:/documents/github/mastermind remake/modules/soundengine/source'
p3639
aS'e:/program files (x86)/marmelade/7.4/s3e/h'
p3640
aS'e:/program files (x86)/marmelade/7.4/s3e/h/ext'
p3641
aS'e:/program files (x86)/marmelade/7.4/s3e/h/std'
p3642
aS'e:/program files (x86)/marmelade/7.4/s3e/h/std/c++'
p3643
aS'e:/program files (x86)/marmelade/7.4/s3e/h/ext_legacy'
p3644
aS'e:/program files (x86)/marmelade/7.4/s3e/h/legacy'
p3645
asS'weak_frameworks'
p3646
(lp3647
sS'extprojects'
p3648
(dp3649
sg577
(dp3650
g571
(lp3651
(S'e:/Documents/GitHub/Mastermind Remake/Mastermind/data/textures'
p3652
S'textures'
p3653
I0
tp3654
a(S'e:/Documents/GitHub/Mastermind Remake/Mastermind/data/audio'
p3655
S'audio'
p3656
I0
tp3657
assS'macro_types'
p3658
(dp3659
g508
I1
sg509
I0
sg510
I0
sg511
I0
sg513
I0
sg514
I0
sg515
I0
sg516
I0
sg517
I0
sg519
I0
sg520
I0
sg521
I0
sg522
I0
sg523
I0
sg525
I0
sg527
I0
sg528
I0
sg529
I0
sg530
I0
sg531
I0
sg532
I0
sg533
I0
sg534
I1
sg535
I0
sg536
I0
sg537
I0
sg538
I0
sg539
I01
sg540
I1
sg541
I0
sg542
I0
sg543
I0
sg544
I0
sg545
I0
sg546
I0
sg547
I0
ssS'commands'
p3660
(lp3661
sg579
(g1038
S'VC11'
p3662
S'X86ARM'
p3663
tp3664
sS'build_libs'
p3665
(dp3666
sg581
g0
sS'frameworks'
p3667
(lp3668
sS'environ'
p3669
(dp3670
sS'target_name_debug'
p3671
g317
sS'builders'
p3672
(dp3673
g571
(dp3674
S'.S'
p3675
(dp3676
S'rvct'
p3677
(lp3678
S'.obj'
p3679
aS'echo ARM Assembling(RVCT) ${SOURCE}...'
p3680
aS'e:/program files (x86)/marmelade/7.4/s3e\\rvct\\bin\\armasm -o ${TARGET} ${SOURCE}'
p3681
asg431
(lp3682
g3679
aS'echo ARM Assembling(GCC) ${SOURCE}...'
p3683
aS'e:/program files (x86)/marmelade/7.4/s3e\\gcc\\bin\\arm-none-eabi-gcc -c -o ${TARGET} ${SOURCE}'
p3684
asS'ppu'
p3685
(lp3686
S'.a'
p3687
aS'echo PPU Assembling(SNC) ${SOURCE}...'
p3688
aS'e:/program files (x86)/marmelade/7.4/s3e\\rvct\\bin\\armasm -o ${TARGET} ${SOURCE}'
p3689
assS'.s'
p3690
g3676
sS'.vp'
p3691
(lp3692
NaS'"E:/Program Files (x86)/Marmelade/7.4/s3e/python/python.exe" "e:/program files (x86)/marmelade/7.4/modules/iwgx/tools/compile_shaders.py" ${SOURCE}'
p3693
asssS'extproject_names'
p3694
(lp3695
sbtp3696
.